ARM GAS  /var/folders/b6/0xn3z77n589c481l0rsth7mc0000gn/T//ccW6wNUD.s 			page 1


   1              		.cpu cortex-m0
   2              		.eabi_attribute 20, 1
   3              		.eabi_attribute 21, 1
   4              		.eabi_attribute 23, 3
   5              		.eabi_attribute 24, 1
   6              		.eabi_attribute 25, 1
   7              		.eabi_attribute 26, 1
   8              		.eabi_attribute 30, 1
   9              		.eabi_attribute 34, 0
  10              		.eabi_attribute 18, 4
  11              		.file	"lz4.c"
  12              		.text
  13              	.Ltext0:
  14              		.cfi_sections	.debug_frame
  15              		.section	.text.LZ4_isAligned,"ax",%progbits
  16              		.align	1
  17              		.arch armv6s-m
  18              		.syntax unified
  19              		.code	16
  20              		.thumb_func
  21              		.fpu softvfp
  23              	LZ4_isAligned:
  24              	.LVL0:
  25              	.LFB0:
  26              		.file 1 "Core/Src/lz4.c"
   1:Core/Src/lz4.c **** /*
   2:Core/Src/lz4.c ****    LZ4 - Fast LZ compression algorithm
   3:Core/Src/lz4.c ****    Copyright (C) 2011-2020, Yann Collet.
   4:Core/Src/lz4.c **** 
   5:Core/Src/lz4.c ****    BSD 2-Clause License (http://www.opensource.org/licenses/bsd-license.php)
   6:Core/Src/lz4.c **** 
   7:Core/Src/lz4.c ****    Redistribution and use in source and binary forms, with or without
   8:Core/Src/lz4.c ****    modification, are permitted provided that the following conditions are
   9:Core/Src/lz4.c ****    met:
  10:Core/Src/lz4.c **** 
  11:Core/Src/lz4.c ****        * Redistributions of source code must retain the above copyright
  12:Core/Src/lz4.c ****    notice, this list of conditions and the following disclaimer.
  13:Core/Src/lz4.c ****        * Redistributions in binary form must reproduce the above
  14:Core/Src/lz4.c ****    copyright notice, this list of conditions and the following disclaimer
  15:Core/Src/lz4.c ****    in the documentation and/or other materials provided with the
  16:Core/Src/lz4.c ****    distribution.
  17:Core/Src/lz4.c **** 
  18:Core/Src/lz4.c ****    THIS SOFTWARE IS PROVIDED BY THE COPYRIGHT HOLDERS AND CONTRIBUTORS
  19:Core/Src/lz4.c ****    "AS IS" AND ANY EXPRESS OR IMPLIED WARRANTIES, INCLUDING, BUT NOT
  20:Core/Src/lz4.c ****    LIMITED TO, THE IMPLIED WARRANTIES OF MERCHANTABILITY AND FITNESS FOR
  21:Core/Src/lz4.c ****    A PARTICULAR PURPOSE ARE DISCLAIMED. IN NO EVENT SHALL THE COPYRIGHT
  22:Core/Src/lz4.c ****    OWNER OR CONTRIBUTORS BE LIABLE FOR ANY DIRECT, INDIRECT, INCIDENTAL,
  23:Core/Src/lz4.c ****    SPECIAL, EXEMPLARY, OR CONSEQUENTIAL DAMAGES (INCLUDING, BUT NOT
  24:Core/Src/lz4.c ****    LIMITED TO, PROCUREMENT OF SUBSTITUTE GOODS OR SERVICES; LOSS OF USE,
  25:Core/Src/lz4.c ****    DATA, OR PROFITS; OR BUSINESS INTERRUPTION) HOWEVER CAUSED AND ON ANY
  26:Core/Src/lz4.c ****    THEORY OF LIABILITY, WHETHER IN CONTRACT, STRICT LIABILITY, OR TORT
  27:Core/Src/lz4.c ****    (INCLUDING NEGLIGENCE OR OTHERWISE) ARISING IN ANY WAY OUT OF THE USE
  28:Core/Src/lz4.c ****    OF THIS SOFTWARE, EVEN IF ADVISED OF THE POSSIBILITY OF SUCH DAMAGE.
  29:Core/Src/lz4.c **** 
  30:Core/Src/lz4.c ****    You can contact the author at :
  31:Core/Src/lz4.c ****     - LZ4 homepage : http://www.lz4.org
  32:Core/Src/lz4.c ****     - LZ4 source repository : https://github.com/lz4/lz4
ARM GAS  /var/folders/b6/0xn3z77n589c481l0rsth7mc0000gn/T//ccW6wNUD.s 			page 2


  33:Core/Src/lz4.c **** */
  34:Core/Src/lz4.c **** 
  35:Core/Src/lz4.c **** /*-************************************
  36:Core/Src/lz4.c **** *  Tuning parameters
  37:Core/Src/lz4.c **** **************************************/
  38:Core/Src/lz4.c **** /*
  39:Core/Src/lz4.c ****  * LZ4_HEAPMODE :
  40:Core/Src/lz4.c ****  * Select how default compression functions will allocate memory for their hash table,
  41:Core/Src/lz4.c ****  * in memory stack (0:default, fastest), or in memory heap (1:requires malloc()).
  42:Core/Src/lz4.c ****  */
  43:Core/Src/lz4.c **** #ifndef LZ4_HEAPMODE
  44:Core/Src/lz4.c **** #  define LZ4_HEAPMODE 0
  45:Core/Src/lz4.c **** #endif
  46:Core/Src/lz4.c **** 
  47:Core/Src/lz4.c **** /*
  48:Core/Src/lz4.c ****  * LZ4_ACCELERATION_DEFAULT :
  49:Core/Src/lz4.c ****  * Select "acceleration" for LZ4_compress_fast() when parameter value <= 0
  50:Core/Src/lz4.c ****  */
  51:Core/Src/lz4.c **** #define LZ4_ACCELERATION_DEFAULT 1
  52:Core/Src/lz4.c **** /*
  53:Core/Src/lz4.c ****  * LZ4_ACCELERATION_MAX :
  54:Core/Src/lz4.c ****  * Any "acceleration" value higher than this threshold
  55:Core/Src/lz4.c ****  * get treated as LZ4_ACCELERATION_MAX instead (fix #876)
  56:Core/Src/lz4.c ****  */
  57:Core/Src/lz4.c **** #define LZ4_ACCELERATION_MAX 65537
  58:Core/Src/lz4.c **** 
  59:Core/Src/lz4.c **** 
  60:Core/Src/lz4.c **** /*-************************************
  61:Core/Src/lz4.c **** *  CPU Feature Detection
  62:Core/Src/lz4.c **** **************************************/
  63:Core/Src/lz4.c **** /* LZ4_FORCE_MEMORY_ACCESS
  64:Core/Src/lz4.c ****  * By default, access to unaligned memory is controlled by `memcpy()`, which is safe and portable.
  65:Core/Src/lz4.c ****  * Unfortunately, on some target/compiler combinations, the generated assembly is sub-optimal.
  66:Core/Src/lz4.c ****  * The below switch allow to select different access method for improved performance.
  67:Core/Src/lz4.c ****  * Method 0 (default) : use `memcpy()`. Safe and portable.
  68:Core/Src/lz4.c ****  * Method 1 : `__packed` statement. It depends on compiler extension (ie, not portable).
  69:Core/Src/lz4.c ****  *            This method is safe if your compiler supports it, and *generally* as fast or faster t
  70:Core/Src/lz4.c ****  * Method 2 : direct access. This method is portable but violate C standard.
  71:Core/Src/lz4.c ****  *            It can generate buggy code on targets which assembly generation depends on alignment.
  72:Core/Src/lz4.c ****  *            But in some circumstances, it's the only known way to get the most performance (ie GC
  73:Core/Src/lz4.c ****  * See https://fastcompression.blogspot.fr/2015/08/accessing-unaligned-memory.html for details.
  74:Core/Src/lz4.c ****  * Prefer these methods in priority order (0 > 1 > 2)
  75:Core/Src/lz4.c ****  */
  76:Core/Src/lz4.c **** #ifndef LZ4_FORCE_MEMORY_ACCESS   /* can be defined externally */
  77:Core/Src/lz4.c **** #  if defined(__GNUC__) && \
  78:Core/Src/lz4.c ****   ( defined(__ARM_ARCH_6__) || defined(__ARM_ARCH_6J__) || defined(__ARM_ARCH_6K__) \
  79:Core/Src/lz4.c ****   || defined(__ARM_ARCH_6Z__) || defined(__ARM_ARCH_6ZK__) || defined(__ARM_ARCH_6T2__) )
  80:Core/Src/lz4.c **** #    define LZ4_FORCE_MEMORY_ACCESS 2
  81:Core/Src/lz4.c **** #  elif (defined(__INTEL_COMPILER) && !defined(_WIN32)) || defined(__GNUC__)
  82:Core/Src/lz4.c **** #    define LZ4_FORCE_MEMORY_ACCESS 1
  83:Core/Src/lz4.c **** #  endif
  84:Core/Src/lz4.c **** #endif
  85:Core/Src/lz4.c **** 
  86:Core/Src/lz4.c **** /*
  87:Core/Src/lz4.c ****  * LZ4_FORCE_SW_BITCOUNT
  88:Core/Src/lz4.c ****  * Define this parameter if your target system or compiler does not support hardware bit count
  89:Core/Src/lz4.c ****  */
ARM GAS  /var/folders/b6/0xn3z77n589c481l0rsth7mc0000gn/T//ccW6wNUD.s 			page 3


  90:Core/Src/lz4.c **** #if defined(_MSC_VER) && defined(_WIN32_WCE)   /* Visual Studio for WinCE doesn't support Hardware 
  91:Core/Src/lz4.c **** #  undef  LZ4_FORCE_SW_BITCOUNT  /* avoid double def */
  92:Core/Src/lz4.c **** #  define LZ4_FORCE_SW_BITCOUNT
  93:Core/Src/lz4.c **** #endif
  94:Core/Src/lz4.c **** 
  95:Core/Src/lz4.c **** 
  96:Core/Src/lz4.c **** 
  97:Core/Src/lz4.c **** /*-************************************
  98:Core/Src/lz4.c **** *  Dependency
  99:Core/Src/lz4.c **** **************************************/
 100:Core/Src/lz4.c **** /*
 101:Core/Src/lz4.c ****  * LZ4_SRC_INCLUDED:
 102:Core/Src/lz4.c ****  * Amalgamation flag, whether lz4.c is included
 103:Core/Src/lz4.c ****  */
 104:Core/Src/lz4.c **** #ifndef LZ4_SRC_INCLUDED
 105:Core/Src/lz4.c **** #  define LZ4_SRC_INCLUDED 1
 106:Core/Src/lz4.c **** #endif
 107:Core/Src/lz4.c **** 
 108:Core/Src/lz4.c **** #ifndef LZ4_STATIC_LINKING_ONLY
 109:Core/Src/lz4.c **** #define LZ4_STATIC_LINKING_ONLY
 110:Core/Src/lz4.c **** #endif
 111:Core/Src/lz4.c **** 
 112:Core/Src/lz4.c **** #ifndef LZ4_DISABLE_DEPRECATE_WARNINGS
 113:Core/Src/lz4.c **** #define LZ4_DISABLE_DEPRECATE_WARNINGS /* due to LZ4_decompress_safe_withPrefix64k */
 114:Core/Src/lz4.c **** #endif
 115:Core/Src/lz4.c **** 
 116:Core/Src/lz4.c **** #define LZ4_STATIC_LINKING_ONLY  /* LZ4_DISTANCE_MAX */
 117:Core/Src/lz4.c **** #include "lz4.h"
 118:Core/Src/lz4.c **** /* see also "memory routines" below */
 119:Core/Src/lz4.c **** 
 120:Core/Src/lz4.c **** 
 121:Core/Src/lz4.c **** /*-************************************
 122:Core/Src/lz4.c **** *  Compiler Options
 123:Core/Src/lz4.c **** **************************************/
 124:Core/Src/lz4.c **** #if defined(_MSC_VER) && (_MSC_VER >= 1400)  /* Visual Studio 2005+ */
 125:Core/Src/lz4.c **** #  include <intrin.h>               /* only present in VS2005+ */
 126:Core/Src/lz4.c **** #  pragma warning(disable : 4127)   /* disable: C4127: conditional expression is constant */
 127:Core/Src/lz4.c **** #  pragma warning(disable : 6237)   /* disable: C6237: conditional expression is always 0 */
 128:Core/Src/lz4.c **** #endif  /* _MSC_VER */
 129:Core/Src/lz4.c **** 
 130:Core/Src/lz4.c **** #ifndef LZ4_FORCE_INLINE
 131:Core/Src/lz4.c **** #  ifdef _MSC_VER    /* Visual Studio */
 132:Core/Src/lz4.c **** #    define LZ4_FORCE_INLINE static __forceinline
 133:Core/Src/lz4.c **** #  else
 134:Core/Src/lz4.c **** #    if defined (__cplusplus) || defined (__STDC_VERSION__) && __STDC_VERSION__ >= 199901L   /* C99
 135:Core/Src/lz4.c **** #      ifdef __GNUC__
 136:Core/Src/lz4.c **** #        define LZ4_FORCE_INLINE static inline __attribute__((always_inline))
 137:Core/Src/lz4.c **** #      else
 138:Core/Src/lz4.c **** #        define LZ4_FORCE_INLINE static inline
 139:Core/Src/lz4.c **** #      endif
 140:Core/Src/lz4.c **** #    else
 141:Core/Src/lz4.c **** #      define LZ4_FORCE_INLINE static
 142:Core/Src/lz4.c **** #    endif /* __STDC_VERSION__ */
 143:Core/Src/lz4.c **** #  endif  /* _MSC_VER */
 144:Core/Src/lz4.c **** #endif /* LZ4_FORCE_INLINE */
 145:Core/Src/lz4.c **** 
 146:Core/Src/lz4.c **** /* LZ4_FORCE_O2 and LZ4_FORCE_INLINE
ARM GAS  /var/folders/b6/0xn3z77n589c481l0rsth7mc0000gn/T//ccW6wNUD.s 			page 4


 147:Core/Src/lz4.c ****  * gcc on ppc64le generates an unrolled SIMDized loop for LZ4_wildCopy8,
 148:Core/Src/lz4.c ****  * together with a simple 8-byte copy loop as a fall-back path.
 149:Core/Src/lz4.c ****  * However, this optimization hurts the decompression speed by >30%,
 150:Core/Src/lz4.c ****  * because the execution does not go to the optimized loop
 151:Core/Src/lz4.c ****  * for typical compressible data, and all of the preamble checks
 152:Core/Src/lz4.c ****  * before going to the fall-back path become useless overhead.
 153:Core/Src/lz4.c ****  * This optimization happens only with the -O3 flag, and -O2 generates
 154:Core/Src/lz4.c ****  * a simple 8-byte copy loop.
 155:Core/Src/lz4.c ****  * With gcc on ppc64le, all of the LZ4_decompress_* and LZ4_wildCopy8
 156:Core/Src/lz4.c ****  * functions are annotated with __attribute__((optimize("O2"))),
 157:Core/Src/lz4.c ****  * and also LZ4_wildCopy8 is forcibly inlined, so that the O2 attribute
 158:Core/Src/lz4.c ****  * of LZ4_wildCopy8 does not affect the compression speed.
 159:Core/Src/lz4.c ****  */
 160:Core/Src/lz4.c **** #if defined(__PPC64__) && defined(__LITTLE_ENDIAN__) && defined(__GNUC__) && !defined(__clang__)
 161:Core/Src/lz4.c **** #  define LZ4_FORCE_O2  __attribute__((optimize("O2")))
 162:Core/Src/lz4.c **** #  undef LZ4_FORCE_INLINE
 163:Core/Src/lz4.c **** #  define LZ4_FORCE_INLINE  static __inline __attribute__((optimize("O2"),always_inline))
 164:Core/Src/lz4.c **** #else
 165:Core/Src/lz4.c **** #  define LZ4_FORCE_O2
 166:Core/Src/lz4.c **** #endif
 167:Core/Src/lz4.c **** 
 168:Core/Src/lz4.c **** #if (defined(__GNUC__) && (__GNUC__ >= 3)) || (defined(__INTEL_COMPILER) && (__INTEL_COMPILER >= 80
 169:Core/Src/lz4.c **** #  define expect(expr,value)    (__builtin_expect ((expr),(value)) )
 170:Core/Src/lz4.c **** #else
 171:Core/Src/lz4.c **** #  define expect(expr,value)    (expr)
 172:Core/Src/lz4.c **** #endif
 173:Core/Src/lz4.c **** 
 174:Core/Src/lz4.c **** #ifndef likely
 175:Core/Src/lz4.c **** #define likely(expr)     expect((expr) != 0, 1)
 176:Core/Src/lz4.c **** #endif
 177:Core/Src/lz4.c **** #ifndef unlikely
 178:Core/Src/lz4.c **** #define unlikely(expr)   expect((expr) != 0, 0)
 179:Core/Src/lz4.c **** #endif
 180:Core/Src/lz4.c **** 
 181:Core/Src/lz4.c **** /* Should the alignment test prove unreliable, for some reason,
 182:Core/Src/lz4.c ****  * it can be disabled by setting LZ4_ALIGN_TEST to 0 */
 183:Core/Src/lz4.c **** #ifndef LZ4_ALIGN_TEST  /* can be externally provided */
 184:Core/Src/lz4.c **** # define LZ4_ALIGN_TEST 1
 185:Core/Src/lz4.c **** #endif
 186:Core/Src/lz4.c **** 
 187:Core/Src/lz4.c **** 
 188:Core/Src/lz4.c **** /*-************************************
 189:Core/Src/lz4.c **** *  Memory routines
 190:Core/Src/lz4.c **** **************************************/
 191:Core/Src/lz4.c **** 
 192:Core/Src/lz4.c **** /*! LZ4_STATIC_LINKING_ONLY_DISABLE_MEMORY_ALLOCATION :
 193:Core/Src/lz4.c ****  *  Disable relatively high-level LZ4/HC functions that use dynamic memory
 194:Core/Src/lz4.c ****  *  allocation functions (malloc(), calloc(), free()).
 195:Core/Src/lz4.c ****  *
 196:Core/Src/lz4.c ****  *  Note that this is a compile-time switch. And since it disables
 197:Core/Src/lz4.c ****  *  public/stable LZ4 v1 API functions, we don't recommend using this
 198:Core/Src/lz4.c ****  *  symbol to generate a library for distribution.
 199:Core/Src/lz4.c ****  *
 200:Core/Src/lz4.c ****  *  The following public functions are removed when this symbol is defined.
 201:Core/Src/lz4.c ****  *  - lz4   : LZ4_createStream, LZ4_freeStream,
 202:Core/Src/lz4.c ****  *            LZ4_createStreamDecode, LZ4_freeStreamDecode, LZ4_create (deprecated)
 203:Core/Src/lz4.c ****  *  - lz4hc : LZ4_createStreamHC, LZ4_freeStreamHC,
ARM GAS  /var/folders/b6/0xn3z77n589c481l0rsth7mc0000gn/T//ccW6wNUD.s 			page 5


 204:Core/Src/lz4.c ****  *            LZ4_createHC (deprecated), LZ4_freeHC  (deprecated)
 205:Core/Src/lz4.c ****  *  - lz4frame, lz4file : All LZ4F_* functions
 206:Core/Src/lz4.c ****  */
 207:Core/Src/lz4.c **** #if defined(LZ4_STATIC_LINKING_ONLY_DISABLE_MEMORY_ALLOCATION)
 208:Core/Src/lz4.c **** #  define ALLOC(s)          lz4_error_memory_allocation_is_disabled
 209:Core/Src/lz4.c **** #  define ALLOC_AND_ZERO(s) lz4_error_memory_allocation_is_disabled
 210:Core/Src/lz4.c **** #  define FREEMEM(p)        lz4_error_memory_allocation_is_disabled
 211:Core/Src/lz4.c **** #elif defined(LZ4_USER_MEMORY_FUNCTIONS)
 212:Core/Src/lz4.c **** /* memory management functions can be customized by user project.
 213:Core/Src/lz4.c ****  * Below functions must exist somewhere in the Project
 214:Core/Src/lz4.c ****  * and be available at link time */
 215:Core/Src/lz4.c **** void* LZ4_malloc(size_t s);
 216:Core/Src/lz4.c **** void* LZ4_calloc(size_t n, size_t s);
 217:Core/Src/lz4.c **** void  LZ4_free(void* p);
 218:Core/Src/lz4.c **** # define ALLOC(s)          LZ4_malloc(s)
 219:Core/Src/lz4.c **** # define ALLOC_AND_ZERO(s) LZ4_calloc(1,s)
 220:Core/Src/lz4.c **** # define FREEMEM(p)        LZ4_free(p)
 221:Core/Src/lz4.c **** #else
 222:Core/Src/lz4.c **** # include <stdlib.h>   /* malloc, calloc, free */
 223:Core/Src/lz4.c **** # define ALLOC(s)          malloc(s)
 224:Core/Src/lz4.c **** # define ALLOC_AND_ZERO(s) calloc(1,s)
 225:Core/Src/lz4.c **** # define FREEMEM(p)        free(p)
 226:Core/Src/lz4.c **** #endif
 227:Core/Src/lz4.c **** 
 228:Core/Src/lz4.c **** #if ! LZ4_FREESTANDING
 229:Core/Src/lz4.c **** #  include <string.h>   /* memset, memcpy */
 230:Core/Src/lz4.c **** #endif
 231:Core/Src/lz4.c **** #if !defined(LZ4_memset)
 232:Core/Src/lz4.c **** #  define LZ4_memset(p,v,s) memset((p),(v),(s))
 233:Core/Src/lz4.c **** #endif
 234:Core/Src/lz4.c **** #define MEM_INIT(p,v,s)   LZ4_memset((p),(v),(s))
 235:Core/Src/lz4.c **** 
 236:Core/Src/lz4.c **** 
 237:Core/Src/lz4.c **** /*-************************************
 238:Core/Src/lz4.c **** *  Common Constants
 239:Core/Src/lz4.c **** **************************************/
 240:Core/Src/lz4.c **** #define MINMATCH 4
 241:Core/Src/lz4.c **** 
 242:Core/Src/lz4.c **** #define WILDCOPYLENGTH 8
 243:Core/Src/lz4.c **** #define LASTLITERALS   5   /* see ../doc/lz4_Block_format.md#parsing-restrictions */
 244:Core/Src/lz4.c **** #define MFLIMIT       12   /* see ../doc/lz4_Block_format.md#parsing-restrictions */
 245:Core/Src/lz4.c **** #define MATCH_SAFEGUARD_DISTANCE  ((2*WILDCOPYLENGTH) - MINMATCH)   /* ensure it's possible to writ
 246:Core/Src/lz4.c **** #define FASTLOOP_SAFE_DISTANCE 64
 247:Core/Src/lz4.c **** static const int LZ4_minLength = (MFLIMIT+1);
 248:Core/Src/lz4.c **** 
 249:Core/Src/lz4.c **** #define KB *(1 <<10)
 250:Core/Src/lz4.c **** #define MB *(1 <<20)
 251:Core/Src/lz4.c **** #define GB *(1U<<30)
 252:Core/Src/lz4.c **** 
 253:Core/Src/lz4.c **** #define LZ4_DISTANCE_ABSOLUTE_MAX 65535
 254:Core/Src/lz4.c **** #if (LZ4_DISTANCE_MAX > LZ4_DISTANCE_ABSOLUTE_MAX)   /* max supported by LZ4 format */
 255:Core/Src/lz4.c **** #  error "LZ4_DISTANCE_MAX is too big : must be <= 65535"
 256:Core/Src/lz4.c **** #endif
 257:Core/Src/lz4.c **** 
 258:Core/Src/lz4.c **** #define ML_BITS  4
 259:Core/Src/lz4.c **** #define ML_MASK  ((1U<<ML_BITS)-1)
 260:Core/Src/lz4.c **** #define RUN_BITS (8-ML_BITS)
ARM GAS  /var/folders/b6/0xn3z77n589c481l0rsth7mc0000gn/T//ccW6wNUD.s 			page 6


 261:Core/Src/lz4.c **** #define RUN_MASK ((1U<<RUN_BITS)-1)
 262:Core/Src/lz4.c **** 
 263:Core/Src/lz4.c **** 
 264:Core/Src/lz4.c **** /*-************************************
 265:Core/Src/lz4.c **** *  Error detection
 266:Core/Src/lz4.c **** **************************************/
 267:Core/Src/lz4.c **** #if defined(LZ4_DEBUG) && (LZ4_DEBUG>=1)
 268:Core/Src/lz4.c **** #  include <assert.h>
 269:Core/Src/lz4.c **** #else
 270:Core/Src/lz4.c **** #  ifndef assert
 271:Core/Src/lz4.c **** #    define assert(condition) ((void)0)
 272:Core/Src/lz4.c **** #  endif
 273:Core/Src/lz4.c **** #endif
 274:Core/Src/lz4.c **** 
 275:Core/Src/lz4.c **** #define LZ4_STATIC_ASSERT(c)   { enum { LZ4_static_assert = 1/(int)(!!(c)) }; }   /* use after vari
 276:Core/Src/lz4.c **** 
 277:Core/Src/lz4.c **** #if defined(LZ4_DEBUG) && (LZ4_DEBUG>=2)
 278:Core/Src/lz4.c **** #  include <stdio.h>
 279:Core/Src/lz4.c ****    static int g_debuglog_enable = 1;
 280:Core/Src/lz4.c **** #  define DEBUGLOG(l, ...) {                          \
 281:Core/Src/lz4.c ****         if ((g_debuglog_enable) && (l<=LZ4_DEBUG)) {  \
 282:Core/Src/lz4.c ****             fprintf(stderr, __FILE__  " %i: ", __LINE__); \
 283:Core/Src/lz4.c ****             fprintf(stderr, __VA_ARGS__);             \
 284:Core/Src/lz4.c ****             fprintf(stderr, " \n");                   \
 285:Core/Src/lz4.c ****     }   }
 286:Core/Src/lz4.c **** #else
 287:Core/Src/lz4.c **** #  define DEBUGLOG(l, ...) {}    /* disabled */
 288:Core/Src/lz4.c **** #endif
 289:Core/Src/lz4.c **** 
 290:Core/Src/lz4.c **** static int LZ4_isAligned(const void* ptr, size_t alignment)
 291:Core/Src/lz4.c **** {
  27              		.loc 1 291 1 view -0
  28              		.cfi_startproc
  29              		@ args = 0, pretend = 0, frame = 0
  30              		@ frame_needed = 0, uses_anonymous_args = 0
  31              		@ link register save eliminated.
 292:Core/Src/lz4.c ****     return ((size_t)ptr & (alignment -1)) == 0;
  32              		.loc 1 292 5 view .LVU1
  33              		.loc 1 292 38 is_stmt 0 view .LVU2
  34 0000 0139     		subs	r1, r1, #1
  35              	.LVL1:
  36              		.loc 1 292 25 view .LVU3
  37 0002 0840     		ands	r0, r1
  38              	.LVL2:
  39              		.loc 1 292 43 view .LVU4
  40 0004 4342     		rsbs	r3, r0, #0
  41 0006 5841     		adcs	r0, r0, r3
 293:Core/Src/lz4.c **** }
  42              		.loc 1 293 1 view .LVU5
  43              		@ sp needed
  44 0008 7047     		bx	lr
  45              		.cfi_endproc
  46              	.LFE0:
  48              		.section	.text.LZ4_isLittleEndian,"ax",%progbits
  49              		.align	1
  50              		.syntax unified
  51              		.code	16
ARM GAS  /var/folders/b6/0xn3z77n589c481l0rsth7mc0000gn/T//ccW6wNUD.s 			page 7


  52              		.thumb_func
  53              		.fpu softvfp
  55              	LZ4_isLittleEndian:
  56              	.LFB1:
 294:Core/Src/lz4.c **** 
 295:Core/Src/lz4.c **** 
 296:Core/Src/lz4.c **** /*-************************************
 297:Core/Src/lz4.c **** *  Types
 298:Core/Src/lz4.c **** **************************************/
 299:Core/Src/lz4.c **** #include <limits.h>
 300:Core/Src/lz4.c **** #if defined(__cplusplus) || (defined (__STDC_VERSION__) && (__STDC_VERSION__ >= 199901L) /* C99 */)
 301:Core/Src/lz4.c **** # include <stdint.h>
 302:Core/Src/lz4.c ****   typedef  uint8_t BYTE;
 303:Core/Src/lz4.c ****   typedef uint16_t U16;
 304:Core/Src/lz4.c ****   typedef uint32_t U32;
 305:Core/Src/lz4.c ****   typedef  int32_t S32;
 306:Core/Src/lz4.c ****   typedef uint64_t U64;
 307:Core/Src/lz4.c ****   typedef uintptr_t uptrval;
 308:Core/Src/lz4.c **** #else
 309:Core/Src/lz4.c **** # if UINT_MAX != 4294967295UL
 310:Core/Src/lz4.c **** #   error "LZ4 code (when not C++ or C99) assumes that sizeof(int) == 4"
 311:Core/Src/lz4.c **** # endif
 312:Core/Src/lz4.c ****   typedef unsigned char       BYTE;
 313:Core/Src/lz4.c ****   typedef unsigned short      U16;
 314:Core/Src/lz4.c ****   typedef unsigned int        U32;
 315:Core/Src/lz4.c ****   typedef   signed int        S32;
 316:Core/Src/lz4.c ****   typedef unsigned long long  U64;
 317:Core/Src/lz4.c ****   typedef size_t              uptrval;   /* generally true, except OpenVMS-64 */
 318:Core/Src/lz4.c **** #endif
 319:Core/Src/lz4.c **** 
 320:Core/Src/lz4.c **** #if defined(__x86_64__)
 321:Core/Src/lz4.c ****   typedef U64    reg_t;   /* 64-bits in x32 mode */
 322:Core/Src/lz4.c **** #else
 323:Core/Src/lz4.c ****   typedef size_t reg_t;   /* 32-bits in x32 mode */
 324:Core/Src/lz4.c **** #endif
 325:Core/Src/lz4.c **** 
 326:Core/Src/lz4.c **** typedef enum {
 327:Core/Src/lz4.c ****     notLimited = 0,
 328:Core/Src/lz4.c ****     limitedOutput = 1,
 329:Core/Src/lz4.c ****     fillOutput = 2
 330:Core/Src/lz4.c **** } limitedOutput_directive;
 331:Core/Src/lz4.c **** 
 332:Core/Src/lz4.c **** 
 333:Core/Src/lz4.c **** /*-************************************
 334:Core/Src/lz4.c **** *  Reading and writing into memory
 335:Core/Src/lz4.c **** **************************************/
 336:Core/Src/lz4.c **** 
 337:Core/Src/lz4.c **** /**
 338:Core/Src/lz4.c ****  * LZ4 relies on memcpy with a constant size being inlined. In freestanding
 339:Core/Src/lz4.c ****  * environments, the compiler can't assume the implementation of memcpy() is
 340:Core/Src/lz4.c ****  * standard compliant, so it can't apply its specialized memcpy() inlining
 341:Core/Src/lz4.c ****  * logic. When possible, use __builtin_memcpy() to tell the compiler to analyze
 342:Core/Src/lz4.c ****  * memcpy() as if it were standard compliant, so it can inline it in freestanding
 343:Core/Src/lz4.c ****  * environments. This is needed when decompressing the Linux Kernel, for example.
 344:Core/Src/lz4.c ****  */
 345:Core/Src/lz4.c **** #if !defined(LZ4_memcpy)
 346:Core/Src/lz4.c **** #  if defined(__GNUC__) && (__GNUC__ >= 4)
ARM GAS  /var/folders/b6/0xn3z77n589c481l0rsth7mc0000gn/T//ccW6wNUD.s 			page 8


 347:Core/Src/lz4.c **** #    define LZ4_memcpy(dst, src, size) __builtin_memcpy(dst, src, size)
 348:Core/Src/lz4.c **** #  else
 349:Core/Src/lz4.c **** #    define LZ4_memcpy(dst, src, size) memcpy(dst, src, size)
 350:Core/Src/lz4.c **** #  endif
 351:Core/Src/lz4.c **** #endif
 352:Core/Src/lz4.c **** 
 353:Core/Src/lz4.c **** #if !defined(LZ4_memmove)
 354:Core/Src/lz4.c **** #  if defined(__GNUC__) && (__GNUC__ >= 4)
 355:Core/Src/lz4.c **** #    define LZ4_memmove __builtin_memmove
 356:Core/Src/lz4.c **** #  else
 357:Core/Src/lz4.c **** #    define LZ4_memmove memmove
 358:Core/Src/lz4.c **** #  endif
 359:Core/Src/lz4.c **** #endif
 360:Core/Src/lz4.c **** 
 361:Core/Src/lz4.c **** static unsigned LZ4_isLittleEndian(void)
 362:Core/Src/lz4.c **** {
  57              		.loc 1 362 1 is_stmt 1 view -0
  58              		.cfi_startproc
  59              		@ args = 0, pretend = 0, frame = 0
  60              		@ frame_needed = 0, uses_anonymous_args = 0
  61              		@ link register save eliminated.
 363:Core/Src/lz4.c ****     const union { U32 u; BYTE c[4]; } one = { 1 };   /* don't use static : performance detrimental 
  62              		.loc 1 363 5 view .LVU7
 364:Core/Src/lz4.c ****     return one.c[0];
  63              		.loc 1 364 5 view .LVU8
 365:Core/Src/lz4.c **** }
  64              		.loc 1 365 1 is_stmt 0 view .LVU9
  65 0000 0120     		movs	r0, #1
  66              		@ sp needed
  67 0002 7047     		bx	lr
  68              		.cfi_endproc
  69              	.LFE1:
  71              		.section	.text.LZ4_read16,"ax",%progbits
  72              		.align	1
  73              		.syntax unified
  74              		.code	16
  75              		.thumb_func
  76              		.fpu softvfp
  78              	LZ4_read16:
  79              	.LVL3:
  80              	.LFB2:
 366:Core/Src/lz4.c **** 
 367:Core/Src/lz4.c **** 
 368:Core/Src/lz4.c **** #if defined(LZ4_FORCE_MEMORY_ACCESS) && (LZ4_FORCE_MEMORY_ACCESS==2)
 369:Core/Src/lz4.c **** /* lie to the compiler about data alignment; use with caution */
 370:Core/Src/lz4.c **** 
 371:Core/Src/lz4.c **** static U16 LZ4_read16(const void* memPtr) { return *(const U16*) memPtr; }
 372:Core/Src/lz4.c **** static U32 LZ4_read32(const void* memPtr) { return *(const U32*) memPtr; }
 373:Core/Src/lz4.c **** static reg_t LZ4_read_ARCH(const void* memPtr) { return *(const reg_t*) memPtr; }
 374:Core/Src/lz4.c **** 
 375:Core/Src/lz4.c **** static void LZ4_write16(void* memPtr, U16 value) { *(U16*)memPtr = value; }
 376:Core/Src/lz4.c **** static void LZ4_write32(void* memPtr, U32 value) { *(U32*)memPtr = value; }
 377:Core/Src/lz4.c **** 
 378:Core/Src/lz4.c **** #elif defined(LZ4_FORCE_MEMORY_ACCESS) && (LZ4_FORCE_MEMORY_ACCESS==1)
 379:Core/Src/lz4.c **** 
 380:Core/Src/lz4.c **** /* __pack instructions are safer, but compiler specific, hence potentially problematic for some com
 381:Core/Src/lz4.c **** /* currently only defined for gcc and icc */
ARM GAS  /var/folders/b6/0xn3z77n589c481l0rsth7mc0000gn/T//ccW6wNUD.s 			page 9


 382:Core/Src/lz4.c **** typedef struct { U16 u16; } __attribute__((packed)) LZ4_unalign16;
 383:Core/Src/lz4.c **** typedef struct { U32 u32; } __attribute__((packed)) LZ4_unalign32;
 384:Core/Src/lz4.c **** typedef struct { reg_t uArch; } __attribute__((packed)) LZ4_unalignST;
 385:Core/Src/lz4.c **** 
 386:Core/Src/lz4.c **** static U16 LZ4_read16(const void* ptr) { return ((const LZ4_unalign16*)ptr)->u16; }
  81              		.loc 1 386 40 is_stmt 1 view -0
  82              		.cfi_startproc
  83              		@ args = 0, pretend = 0, frame = 0
  84              		@ frame_needed = 0, uses_anonymous_args = 0
  85              		@ link register save eliminated.
  86              		.loc 1 386 42 view .LVU11
  87              		.loc 1 386 76 is_stmt 0 view .LVU12
  88 0000 0378     		ldrb	r3, [r0]
  89 0002 4078     		ldrb	r0, [r0, #1]
  90              	.LVL4:
  91              		.loc 1 386 76 view .LVU13
  92 0004 0002     		lsls	r0, r0, #8
  93 0006 1843     		orrs	r0, r3
  94              		.loc 1 386 83 view .LVU14
  95              		@ sp needed
  96 0008 7047     		bx	lr
  97              		.cfi_endproc
  98              	.LFE2:
 100              		.section	.text.LZ4_read32,"ax",%progbits
 101              		.align	1
 102              		.syntax unified
 103              		.code	16
 104              		.thumb_func
 105              		.fpu softvfp
 107              	LZ4_read32:
 108              	.LVL5:
 109              	.LFB3:
 387:Core/Src/lz4.c **** static U32 LZ4_read32(const void* ptr) { return ((const LZ4_unalign32*)ptr)->u32; }
 110              		.loc 1 387 40 is_stmt 1 view -0
 111              		.cfi_startproc
 112              		@ args = 0, pretend = 0, frame = 0
 113              		@ frame_needed = 0, uses_anonymous_args = 0
 114              		@ link register save eliminated.
 115              		.loc 1 387 42 view .LVU16
 116              		.loc 1 387 76 is_stmt 0 view .LVU17
 117 0000 0178     		ldrb	r1, [r0]
 118 0002 4278     		ldrb	r2, [r0, #1]
 119 0004 1202     		lsls	r2, r2, #8
 120 0006 1143     		orrs	r1, r2
 121 0008 8378     		ldrb	r3, [r0, #2]
 122 000a 1B04     		lsls	r3, r3, #16
 123 000c 0B43     		orrs	r3, r1
 124 000e C078     		ldrb	r0, [r0, #3]
 125              	.LVL6:
 126              		.loc 1 387 76 view .LVU18
 127 0010 0006     		lsls	r0, r0, #24
 128 0012 1843     		orrs	r0, r3
 129              		.loc 1 387 83 view .LVU19
 130              		@ sp needed
 131 0014 7047     		bx	lr
 132              		.cfi_endproc
 133              	.LFE3:
ARM GAS  /var/folders/b6/0xn3z77n589c481l0rsth7mc0000gn/T//ccW6wNUD.s 			page 10


 135              		.section	.text.LZ4_read_ARCH,"ax",%progbits
 136              		.align	1
 137              		.syntax unified
 138              		.code	16
 139              		.thumb_func
 140              		.fpu softvfp
 142              	LZ4_read_ARCH:
 143              	.LVL7:
 144              	.LFB4:
 388:Core/Src/lz4.c **** static reg_t LZ4_read_ARCH(const void* ptr) { return ((const LZ4_unalignST*)ptr)->uArch; }
 145              		.loc 1 388 45 is_stmt 1 view -0
 146              		.cfi_startproc
 147              		@ args = 0, pretend = 0, frame = 0
 148              		@ frame_needed = 0, uses_anonymous_args = 0
 149              		@ link register save eliminated.
 150              		.loc 1 388 47 view .LVU21
 151              		.loc 1 388 81 is_stmt 0 view .LVU22
 152 0000 0178     		ldrb	r1, [r0]
 153 0002 4278     		ldrb	r2, [r0, #1]
 154 0004 1202     		lsls	r2, r2, #8
 155 0006 1143     		orrs	r1, r2
 156 0008 8378     		ldrb	r3, [r0, #2]
 157 000a 1B04     		lsls	r3, r3, #16
 158 000c 0B43     		orrs	r3, r1
 159 000e C078     		ldrb	r0, [r0, #3]
 160              	.LVL8:
 161              		.loc 1 388 81 view .LVU23
 162 0010 0006     		lsls	r0, r0, #24
 163 0012 1843     		orrs	r0, r3
 164              		.loc 1 388 90 view .LVU24
 165              		@ sp needed
 166 0014 7047     		bx	lr
 167              		.cfi_endproc
 168              	.LFE4:
 170              		.section	.text.LZ4_write16,"ax",%progbits
 171              		.align	1
 172              		.syntax unified
 173              		.code	16
 174              		.thumb_func
 175              		.fpu softvfp
 177              	LZ4_write16:
 178              	.LVL9:
 179              	.LFB5:
 389:Core/Src/lz4.c **** 
 390:Core/Src/lz4.c **** static void LZ4_write16(void* memPtr, U16 value) { ((LZ4_unalign16*)memPtr)->u16 = value; }
 180              		.loc 1 390 50 is_stmt 1 view -0
 181              		.cfi_startproc
 182              		@ args = 0, pretend = 0, frame = 0
 183              		@ frame_needed = 0, uses_anonymous_args = 0
 184              		@ link register save eliminated.
 185              		.loc 1 390 52 view .LVU26
 186              		.loc 1 390 82 is_stmt 0 view .LVU27
 187 0000 0170     		strb	r1, [r0]
 188 0002 090A     		lsrs	r1, r1, #8
 189              	.LVL10:
 190              		.loc 1 390 82 view .LVU28
 191 0004 4170     		strb	r1, [r0, #1]
ARM GAS  /var/folders/b6/0xn3z77n589c481l0rsth7mc0000gn/T//ccW6wNUD.s 			page 11


 192              		.loc 1 390 91 view .LVU29
 193              		@ sp needed
 194 0006 7047     		bx	lr
 195              		.cfi_endproc
 196              	.LFE5:
 198              		.section	.text.LZ4_write32,"ax",%progbits
 199              		.align	1
 200              		.syntax unified
 201              		.code	16
 202              		.thumb_func
 203              		.fpu softvfp
 205              	LZ4_write32:
 206              	.LVL11:
 207              	.LFB6:
 391:Core/Src/lz4.c **** static void LZ4_write32(void* memPtr, U32 value) { ((LZ4_unalign32*)memPtr)->u32 = value; }
 208              		.loc 1 391 50 is_stmt 1 view -0
 209              		.cfi_startproc
 210              		@ args = 0, pretend = 0, frame = 0
 211              		@ frame_needed = 0, uses_anonymous_args = 0
 212              		@ link register save eliminated.
 213              		.loc 1 391 52 view .LVU31
 214              		.loc 1 391 82 is_stmt 0 view .LVU32
 215 0000 0170     		strb	r1, [r0]
 216 0002 0B0A     		lsrs	r3, r1, #8
 217 0004 4370     		strb	r3, [r0, #1]
 218 0006 0B0C     		lsrs	r3, r1, #16
 219 0008 8370     		strb	r3, [r0, #2]
 220 000a 090E     		lsrs	r1, r1, #24
 221              	.LVL12:
 222              		.loc 1 391 82 view .LVU33
 223 000c C170     		strb	r1, [r0, #3]
 224              		.loc 1 391 91 view .LVU34
 225              		@ sp needed
 226 000e 7047     		bx	lr
 227              		.cfi_endproc
 228              	.LFE6:
 230              		.section	.text.LZ4_readLE16,"ax",%progbits
 231              		.align	1
 232              		.syntax unified
 233              		.code	16
 234              		.thumb_func
 235              		.fpu softvfp
 237              	LZ4_readLE16:
 238              	.LVL13:
 239              	.LFB7:
 392:Core/Src/lz4.c **** 
 393:Core/Src/lz4.c **** #else  /* safe and portable access using memcpy() */
 394:Core/Src/lz4.c **** 
 395:Core/Src/lz4.c **** static U16 LZ4_read16(const void* memPtr)
 396:Core/Src/lz4.c **** {
 397:Core/Src/lz4.c ****     U16 val; LZ4_memcpy(&val, memPtr, sizeof(val)); return val;
 398:Core/Src/lz4.c **** }
 399:Core/Src/lz4.c **** 
 400:Core/Src/lz4.c **** static U32 LZ4_read32(const void* memPtr)
 401:Core/Src/lz4.c **** {
 402:Core/Src/lz4.c ****     U32 val; LZ4_memcpy(&val, memPtr, sizeof(val)); return val;
 403:Core/Src/lz4.c **** }
ARM GAS  /var/folders/b6/0xn3z77n589c481l0rsth7mc0000gn/T//ccW6wNUD.s 			page 12


 404:Core/Src/lz4.c **** 
 405:Core/Src/lz4.c **** static reg_t LZ4_read_ARCH(const void* memPtr)
 406:Core/Src/lz4.c **** {
 407:Core/Src/lz4.c ****     reg_t val; LZ4_memcpy(&val, memPtr, sizeof(val)); return val;
 408:Core/Src/lz4.c **** }
 409:Core/Src/lz4.c **** 
 410:Core/Src/lz4.c **** static void LZ4_write16(void* memPtr, U16 value)
 411:Core/Src/lz4.c **** {
 412:Core/Src/lz4.c ****     LZ4_memcpy(memPtr, &value, sizeof(value));
 413:Core/Src/lz4.c **** }
 414:Core/Src/lz4.c **** 
 415:Core/Src/lz4.c **** static void LZ4_write32(void* memPtr, U32 value)
 416:Core/Src/lz4.c **** {
 417:Core/Src/lz4.c ****     LZ4_memcpy(memPtr, &value, sizeof(value));
 418:Core/Src/lz4.c **** }
 419:Core/Src/lz4.c **** 
 420:Core/Src/lz4.c **** #endif /* LZ4_FORCE_MEMORY_ACCESS */
 421:Core/Src/lz4.c **** 
 422:Core/Src/lz4.c **** 
 423:Core/Src/lz4.c **** static U16 LZ4_readLE16(const void* memPtr)
 424:Core/Src/lz4.c **** {
 240              		.loc 1 424 1 is_stmt 1 view -0
 241              		.cfi_startproc
 242              		@ args = 0, pretend = 0, frame = 0
 243              		@ frame_needed = 0, uses_anonymous_args = 0
 244              		.loc 1 424 1 is_stmt 0 view .LVU36
 245 0000 10B5     		push	{r4, lr}
 246              		.cfi_def_cfa_offset 8
 247              		.cfi_offset 4, -8
 248              		.cfi_offset 14, -4
 249 0002 0400     		movs	r4, r0
 425:Core/Src/lz4.c ****     if (LZ4_isLittleEndian()) {
 250              		.loc 1 425 5 is_stmt 1 view .LVU37
 251              		.loc 1 425 9 is_stmt 0 view .LVU38
 252 0004 FFF7FEFF 		bl	LZ4_isLittleEndian
 253              	.LVL14:
 254              		.loc 1 425 8 view .LVU39
 255 0008 0028     		cmp	r0, #0
 256 000a 03D0     		beq	.L9
 426:Core/Src/lz4.c ****         return LZ4_read16(memPtr);
 257              		.loc 1 426 9 is_stmt 1 view .LVU40
 258              		.loc 1 426 16 is_stmt 0 view .LVU41
 259 000c 2000     		movs	r0, r4
 260 000e FFF7FEFF 		bl	LZ4_read16
 261              	.LVL15:
 262              	.L10:
 427:Core/Src/lz4.c ****     } else {
 428:Core/Src/lz4.c ****         const BYTE* p = (const BYTE*)memPtr;
 429:Core/Src/lz4.c ****         return (U16)((U16)p[0] + (p[1]<<8));
 430:Core/Src/lz4.c ****     }
 431:Core/Src/lz4.c **** }
 263              		.loc 1 431 1 view .LVU42
 264              		@ sp needed
 265              	.LVL16:
 266              		.loc 1 431 1 view .LVU43
 267 0012 10BD     		pop	{r4, pc}
 268              	.LVL17:
ARM GAS  /var/folders/b6/0xn3z77n589c481l0rsth7mc0000gn/T//ccW6wNUD.s 			page 13


 269              	.L9:
 270              	.LBB2991:
 428:Core/Src/lz4.c ****         return (U16)((U16)p[0] + (p[1]<<8));
 271              		.loc 1 428 9 is_stmt 1 view .LVU44
 429:Core/Src/lz4.c ****     }
 272              		.loc 1 429 9 view .LVU45
 429:Core/Src/lz4.c ****     }
 273              		.loc 1 429 28 is_stmt 0 view .LVU46
 274 0014 2078     		ldrb	r0, [r4]
 429:Core/Src/lz4.c ****     }
 275              		.loc 1 429 36 view .LVU47
 276 0016 6378     		ldrb	r3, [r4, #1]
 429:Core/Src/lz4.c ****     }
 277              		.loc 1 429 39 view .LVU48
 278 0018 1B02     		lsls	r3, r3, #8
 429:Core/Src/lz4.c ****     }
 279              		.loc 1 429 16 view .LVU49
 280 001a C018     		adds	r0, r0, r3
 281 001c 80B2     		uxth	r0, r0
 282 001e F8E7     		b	.L10
 283              	.LBE2991:
 284              		.cfi_endproc
 285              	.LFE7:
 287              		.section	.text.LZ4_writeLE16,"ax",%progbits
 288              		.align	1
 289              		.syntax unified
 290              		.code	16
 291              		.thumb_func
 292              		.fpu softvfp
 294              	LZ4_writeLE16:
 295              	.LVL18:
 296              	.LFB8:
 432:Core/Src/lz4.c **** 
 433:Core/Src/lz4.c **** static void LZ4_writeLE16(void* memPtr, U16 value)
 434:Core/Src/lz4.c **** {
 297              		.loc 1 434 1 is_stmt 1 view -0
 298              		.cfi_startproc
 299              		@ args = 0, pretend = 0, frame = 0
 300              		@ frame_needed = 0, uses_anonymous_args = 0
 301              		.loc 1 434 1 is_stmt 0 view .LVU51
 302 0000 70B5     		push	{r4, r5, r6, lr}
 303              		.cfi_def_cfa_offset 16
 304              		.cfi_offset 4, -16
 305              		.cfi_offset 5, -12
 306              		.cfi_offset 6, -8
 307              		.cfi_offset 14, -4
 308 0002 0500     		movs	r5, r0
 309 0004 0C00     		movs	r4, r1
 435:Core/Src/lz4.c ****     if (LZ4_isLittleEndian()) {
 310              		.loc 1 435 5 is_stmt 1 view .LVU52
 311              		.loc 1 435 9 is_stmt 0 view .LVU53
 312 0006 FFF7FEFF 		bl	LZ4_isLittleEndian
 313              	.LVL19:
 314              		.loc 1 435 8 view .LVU54
 315 000a 0028     		cmp	r0, #0
 316 000c 03D1     		bne	.L14
 317              	.LBB2992:
ARM GAS  /var/folders/b6/0xn3z77n589c481l0rsth7mc0000gn/T//ccW6wNUD.s 			page 14


 436:Core/Src/lz4.c ****         LZ4_write16(memPtr, value);
 437:Core/Src/lz4.c ****     } else {
 438:Core/Src/lz4.c ****         BYTE* p = (BYTE*)memPtr;
 318              		.loc 1 438 9 is_stmt 1 view .LVU55
 319              	.LVL20:
 439:Core/Src/lz4.c ****         p[0] = (BYTE) value;
 320              		.loc 1 439 9 view .LVU56
 321              		.loc 1 439 14 is_stmt 0 view .LVU57
 322 000e 2C70     		strb	r4, [r5]
 440:Core/Src/lz4.c ****         p[1] = (BYTE)(value>>8);
 323              		.loc 1 440 9 is_stmt 1 view .LVU58
 324              		.loc 1 440 16 is_stmt 0 view .LVU59
 325 0010 240A     		lsrs	r4, r4, #8
 326              		.loc 1 440 14 view .LVU60
 327 0012 6C70     		strb	r4, [r5, #1]
 328              	.LVL21:
 329              	.L11:
 330              		.loc 1 440 14 view .LVU61
 331              	.LBE2992:
 441:Core/Src/lz4.c ****     }
 442:Core/Src/lz4.c **** }
 332              		.loc 1 442 1 view .LVU62
 333              		@ sp needed
 334              	.LVL22:
 335              		.loc 1 442 1 view .LVU63
 336 0014 70BD     		pop	{r4, r5, r6, pc}
 337              	.LVL23:
 338              	.L14:
 436:Core/Src/lz4.c ****     } else {
 339              		.loc 1 436 9 is_stmt 1 view .LVU64
 340 0016 2100     		movs	r1, r4
 341 0018 2800     		movs	r0, r5
 342 001a FFF7FEFF 		bl	LZ4_write16
 343              	.LVL24:
 344 001e F9E7     		b	.L11
 345              		.cfi_endproc
 346              	.LFE8:
 348              		.section	.text.LZ4_getPositionOnHash,"ax",%progbits
 349              		.align	1
 350              		.syntax unified
 351              		.code	16
 352              		.thumb_func
 353              		.fpu softvfp
 355              	LZ4_getPositionOnHash:
 356              	.LVL25:
 357              	.LFB24:
 443:Core/Src/lz4.c **** 
 444:Core/Src/lz4.c **** /* customized variant of memcpy, which can overwrite up to 8 bytes beyond dstEnd */
 445:Core/Src/lz4.c **** LZ4_FORCE_INLINE
 446:Core/Src/lz4.c **** void LZ4_wildCopy8(void* dstPtr, const void* srcPtr, void* dstEnd)
 447:Core/Src/lz4.c **** {
 448:Core/Src/lz4.c ****     BYTE* d = (BYTE*)dstPtr;
 449:Core/Src/lz4.c ****     const BYTE* s = (const BYTE*)srcPtr;
 450:Core/Src/lz4.c ****     BYTE* const e = (BYTE*)dstEnd;
 451:Core/Src/lz4.c **** 
 452:Core/Src/lz4.c ****     do { LZ4_memcpy(d,s,8); d+=8; s+=8; } while (d<e);
 453:Core/Src/lz4.c **** }
ARM GAS  /var/folders/b6/0xn3z77n589c481l0rsth7mc0000gn/T//ccW6wNUD.s 			page 15


 454:Core/Src/lz4.c **** 
 455:Core/Src/lz4.c **** static const unsigned inc32table[8] = {0, 1, 2,  1,  0,  4, 4, 4};
 456:Core/Src/lz4.c **** static const int      dec64table[8] = {0, 0, 0, -1, -4,  1, 2, 3};
 457:Core/Src/lz4.c **** 
 458:Core/Src/lz4.c **** 
 459:Core/Src/lz4.c **** #ifndef LZ4_FAST_DEC_LOOP
 460:Core/Src/lz4.c **** #  if defined __i386__ || defined _M_IX86 || defined __x86_64__ || defined _M_X64
 461:Core/Src/lz4.c **** #    define LZ4_FAST_DEC_LOOP 1
 462:Core/Src/lz4.c **** #  elif defined(__aarch64__) && defined(__APPLE__)
 463:Core/Src/lz4.c **** #    define LZ4_FAST_DEC_LOOP 1
 464:Core/Src/lz4.c **** #  elif defined(__aarch64__) && !defined(__clang__)
 465:Core/Src/lz4.c ****      /* On non-Apple aarch64, we disable this optimization for clang because
 466:Core/Src/lz4.c ****       * on certain mobile chipsets, performance is reduced with clang. For
 467:Core/Src/lz4.c ****       * more information refer to https://github.com/lz4/lz4/pull/707 */
 468:Core/Src/lz4.c **** #    define LZ4_FAST_DEC_LOOP 1
 469:Core/Src/lz4.c **** #  else
 470:Core/Src/lz4.c **** #    define LZ4_FAST_DEC_LOOP 0
 471:Core/Src/lz4.c **** #  endif
 472:Core/Src/lz4.c **** #endif
 473:Core/Src/lz4.c **** 
 474:Core/Src/lz4.c **** #if LZ4_FAST_DEC_LOOP
 475:Core/Src/lz4.c **** 
 476:Core/Src/lz4.c **** LZ4_FORCE_INLINE void
 477:Core/Src/lz4.c **** LZ4_memcpy_using_offset_base(BYTE* dstPtr, const BYTE* srcPtr, BYTE* dstEnd, const size_t offset)
 478:Core/Src/lz4.c **** {
 479:Core/Src/lz4.c ****     assert(srcPtr + offset == dstPtr);
 480:Core/Src/lz4.c ****     if (offset < 8) {
 481:Core/Src/lz4.c ****         LZ4_write32(dstPtr, 0);   /* silence an msan warning when offset==0 */
 482:Core/Src/lz4.c ****         dstPtr[0] = srcPtr[0];
 483:Core/Src/lz4.c ****         dstPtr[1] = srcPtr[1];
 484:Core/Src/lz4.c ****         dstPtr[2] = srcPtr[2];
 485:Core/Src/lz4.c ****         dstPtr[3] = srcPtr[3];
 486:Core/Src/lz4.c ****         srcPtr += inc32table[offset];
 487:Core/Src/lz4.c ****         LZ4_memcpy(dstPtr+4, srcPtr, 4);
 488:Core/Src/lz4.c ****         srcPtr -= dec64table[offset];
 489:Core/Src/lz4.c ****         dstPtr += 8;
 490:Core/Src/lz4.c ****     } else {
 491:Core/Src/lz4.c ****         LZ4_memcpy(dstPtr, srcPtr, 8);
 492:Core/Src/lz4.c ****         dstPtr += 8;
 493:Core/Src/lz4.c ****         srcPtr += 8;
 494:Core/Src/lz4.c ****     }
 495:Core/Src/lz4.c **** 
 496:Core/Src/lz4.c ****     LZ4_wildCopy8(dstPtr, srcPtr, dstEnd);
 497:Core/Src/lz4.c **** }
 498:Core/Src/lz4.c **** 
 499:Core/Src/lz4.c **** /* customized variant of memcpy, which can overwrite up to 32 bytes beyond dstEnd
 500:Core/Src/lz4.c ****  * this version copies two times 16 bytes (instead of one time 32 bytes)
 501:Core/Src/lz4.c ****  * because it must be compatible with offsets >= 16. */
 502:Core/Src/lz4.c **** LZ4_FORCE_INLINE void
 503:Core/Src/lz4.c **** LZ4_wildCopy32(void* dstPtr, const void* srcPtr, void* dstEnd)
 504:Core/Src/lz4.c **** {
 505:Core/Src/lz4.c ****     BYTE* d = (BYTE*)dstPtr;
 506:Core/Src/lz4.c ****     const BYTE* s = (const BYTE*)srcPtr;
 507:Core/Src/lz4.c ****     BYTE* const e = (BYTE*)dstEnd;
 508:Core/Src/lz4.c **** 
 509:Core/Src/lz4.c ****     do { LZ4_memcpy(d,s,16); LZ4_memcpy(d+16,s+16,16); d+=32; s+=32; } while (d<e);
 510:Core/Src/lz4.c **** }
ARM GAS  /var/folders/b6/0xn3z77n589c481l0rsth7mc0000gn/T//ccW6wNUD.s 			page 16


 511:Core/Src/lz4.c **** 
 512:Core/Src/lz4.c **** /* LZ4_memcpy_using_offset()  presumes :
 513:Core/Src/lz4.c ****  * - dstEnd >= dstPtr + MINMATCH
 514:Core/Src/lz4.c ****  * - there is at least 8 bytes available to write after dstEnd */
 515:Core/Src/lz4.c **** LZ4_FORCE_INLINE void
 516:Core/Src/lz4.c **** LZ4_memcpy_using_offset(BYTE* dstPtr, const BYTE* srcPtr, BYTE* dstEnd, const size_t offset)
 517:Core/Src/lz4.c **** {
 518:Core/Src/lz4.c ****     BYTE v[8];
 519:Core/Src/lz4.c **** 
 520:Core/Src/lz4.c ****     assert(dstEnd >= dstPtr + MINMATCH);
 521:Core/Src/lz4.c **** 
 522:Core/Src/lz4.c ****     switch(offset) {
 523:Core/Src/lz4.c ****     case 1:
 524:Core/Src/lz4.c ****         MEM_INIT(v, *srcPtr, 8);
 525:Core/Src/lz4.c ****         break;
 526:Core/Src/lz4.c ****     case 2:
 527:Core/Src/lz4.c ****         LZ4_memcpy(v, srcPtr, 2);
 528:Core/Src/lz4.c ****         LZ4_memcpy(&v[2], srcPtr, 2);
 529:Core/Src/lz4.c **** #if defined(_MSC_VER) && (_MSC_VER <= 1933) /* MSVC 2022 ver 17.3 or earlier */
 530:Core/Src/lz4.c **** #  pragma warning(push)
 531:Core/Src/lz4.c **** #  pragma warning(disable : 6385) /* warning C6385: Reading invalid data from 'v'. */
 532:Core/Src/lz4.c **** #endif
 533:Core/Src/lz4.c ****         LZ4_memcpy(&v[4], v, 4);
 534:Core/Src/lz4.c **** #if defined(_MSC_VER) && (_MSC_VER <= 1933) /* MSVC 2022 ver 17.3 or earlier */
 535:Core/Src/lz4.c **** #  pragma warning(pop)
 536:Core/Src/lz4.c **** #endif
 537:Core/Src/lz4.c ****         break;
 538:Core/Src/lz4.c ****     case 4:
 539:Core/Src/lz4.c ****         LZ4_memcpy(v, srcPtr, 4);
 540:Core/Src/lz4.c ****         LZ4_memcpy(&v[4], srcPtr, 4);
 541:Core/Src/lz4.c ****         break;
 542:Core/Src/lz4.c ****     default:
 543:Core/Src/lz4.c ****         LZ4_memcpy_using_offset_base(dstPtr, srcPtr, dstEnd, offset);
 544:Core/Src/lz4.c ****         return;
 545:Core/Src/lz4.c ****     }
 546:Core/Src/lz4.c **** 
 547:Core/Src/lz4.c ****     LZ4_memcpy(dstPtr, v, 8);
 548:Core/Src/lz4.c ****     dstPtr += 8;
 549:Core/Src/lz4.c ****     while (dstPtr < dstEnd) {
 550:Core/Src/lz4.c ****         LZ4_memcpy(dstPtr, v, 8);
 551:Core/Src/lz4.c ****         dstPtr += 8;
 552:Core/Src/lz4.c ****     }
 553:Core/Src/lz4.c **** }
 554:Core/Src/lz4.c **** #endif
 555:Core/Src/lz4.c **** 
 556:Core/Src/lz4.c **** 
 557:Core/Src/lz4.c **** /*-************************************
 558:Core/Src/lz4.c **** *  Common functions
 559:Core/Src/lz4.c **** **************************************/
 560:Core/Src/lz4.c **** static unsigned LZ4_NbCommonBytes (reg_t val)
 561:Core/Src/lz4.c **** {
 562:Core/Src/lz4.c ****     assert(val != 0);
 563:Core/Src/lz4.c ****     if (LZ4_isLittleEndian()) {
 564:Core/Src/lz4.c ****         if (sizeof(val) == 8) {
 565:Core/Src/lz4.c **** #       if defined(_MSC_VER) && (_MSC_VER >= 1800) && (defined(_M_AMD64) && !defined(_M_ARM64EC)) &
 566:Core/Src/lz4.c **** /*-************************************************************************************************
 567:Core/Src/lz4.c **** * ARM64EC is a Microsoft-designed ARM64 ABI compatible with AMD64 applications on ARM64 Windows 11.
ARM GAS  /var/folders/b6/0xn3z77n589c481l0rsth7mc0000gn/T//ccW6wNUD.s 			page 17


 568:Core/Src/lz4.c **** * The ARM64EC ABI does not support AVX/AVX2/AVX512 instructions, nor their relevant intrinsics
 569:Core/Src/lz4.c **** * including _tzcnt_u64. Therefore, we need to neuter the _tzcnt_u64 code path for ARM64EC.
 570:Core/Src/lz4.c **** ***************************************************************************************************
 571:Core/Src/lz4.c **** #         if defined(__clang__) && (__clang_major__ < 10)
 572:Core/Src/lz4.c ****             /* Avoid undefined clang-cl intrinsics issue.
 573:Core/Src/lz4.c ****              * See https://github.com/lz4/lz4/pull/1017 for details. */
 574:Core/Src/lz4.c ****             return (unsigned)__builtin_ia32_tzcnt_u64(val) >> 3;
 575:Core/Src/lz4.c **** #         else
 576:Core/Src/lz4.c ****             /* x64 CPUS without BMI support interpret `TZCNT` as `REP BSF` */
 577:Core/Src/lz4.c ****             return (unsigned)_tzcnt_u64(val) >> 3;
 578:Core/Src/lz4.c **** #         endif
 579:Core/Src/lz4.c **** #       elif defined(_MSC_VER) && defined(_WIN64) && !defined(LZ4_FORCE_SW_BITCOUNT)
 580:Core/Src/lz4.c ****             unsigned long r = 0;
 581:Core/Src/lz4.c ****             _BitScanForward64(&r, (U64)val);
 582:Core/Src/lz4.c ****             return (unsigned)r >> 3;
 583:Core/Src/lz4.c **** #       elif (defined(__clang__) || (defined(__GNUC__) && ((__GNUC__ > 3) || \
 584:Core/Src/lz4.c ****                             ((__GNUC__ == 3) && (__GNUC_MINOR__ >= 4))))) && \
 585:Core/Src/lz4.c ****                                         !defined(LZ4_FORCE_SW_BITCOUNT)
 586:Core/Src/lz4.c ****             return (unsigned)__builtin_ctzll((U64)val) >> 3;
 587:Core/Src/lz4.c **** #       else
 588:Core/Src/lz4.c ****             const U64 m = 0x0101010101010101ULL;
 589:Core/Src/lz4.c ****             val ^= val - 1;
 590:Core/Src/lz4.c ****             return (unsigned)(((U64)((val & (m - 1)) * m)) >> 56);
 591:Core/Src/lz4.c **** #       endif
 592:Core/Src/lz4.c ****         } else /* 32 bits */ {
 593:Core/Src/lz4.c **** #       if defined(_MSC_VER) && (_MSC_VER >= 1400) && !defined(LZ4_FORCE_SW_BITCOUNT)
 594:Core/Src/lz4.c ****             unsigned long r;
 595:Core/Src/lz4.c ****             _BitScanForward(&r, (U32)val);
 596:Core/Src/lz4.c ****             return (unsigned)r >> 3;
 597:Core/Src/lz4.c **** #       elif (defined(__clang__) || (defined(__GNUC__) && ((__GNUC__ > 3) || \
 598:Core/Src/lz4.c ****                             ((__GNUC__ == 3) && (__GNUC_MINOR__ >= 4))))) && \
 599:Core/Src/lz4.c ****                         !defined(__TINYC__) && !defined(LZ4_FORCE_SW_BITCOUNT)
 600:Core/Src/lz4.c ****             return (unsigned)__builtin_ctz((U32)val) >> 3;
 601:Core/Src/lz4.c **** #       else
 602:Core/Src/lz4.c ****             const U32 m = 0x01010101;
 603:Core/Src/lz4.c ****             return (unsigned)((((val - 1) ^ val) & (m - 1)) * m) >> 24;
 604:Core/Src/lz4.c **** #       endif
 605:Core/Src/lz4.c ****         }
 606:Core/Src/lz4.c ****     } else   /* Big Endian CPU */ {
 607:Core/Src/lz4.c ****         if (sizeof(val)==8) {
 608:Core/Src/lz4.c **** #       if (defined(__clang__) || (defined(__GNUC__) && ((__GNUC__ > 3) || \
 609:Core/Src/lz4.c ****                             ((__GNUC__ == 3) && (__GNUC_MINOR__ >= 4))))) && \
 610:Core/Src/lz4.c ****                         !defined(__TINYC__) && !defined(LZ4_FORCE_SW_BITCOUNT)
 611:Core/Src/lz4.c ****             return (unsigned)__builtin_clzll((U64)val) >> 3;
 612:Core/Src/lz4.c **** #       else
 613:Core/Src/lz4.c **** #if 1
 614:Core/Src/lz4.c ****             /* this method is probably faster,
 615:Core/Src/lz4.c ****              * but adds a 128 bytes lookup table */
 616:Core/Src/lz4.c ****             static const unsigned char ctz7_tab[128] = {
 617:Core/Src/lz4.c ****                 7, 0, 1, 0, 2, 0, 1, 0, 3, 0, 1, 0, 2, 0, 1, 0,
 618:Core/Src/lz4.c ****                 4, 0, 1, 0, 2, 0, 1, 0, 3, 0, 1, 0, 2, 0, 1, 0,
 619:Core/Src/lz4.c ****                 5, 0, 1, 0, 2, 0, 1, 0, 3, 0, 1, 0, 2, 0, 1, 0,
 620:Core/Src/lz4.c ****                 4, 0, 1, 0, 2, 0, 1, 0, 3, 0, 1, 0, 2, 0, 1, 0,
 621:Core/Src/lz4.c ****                 6, 0, 1, 0, 2, 0, 1, 0, 3, 0, 1, 0, 2, 0, 1, 0,
 622:Core/Src/lz4.c ****                 4, 0, 1, 0, 2, 0, 1, 0, 3, 0, 1, 0, 2, 0, 1, 0,
 623:Core/Src/lz4.c ****                 5, 0, 1, 0, 2, 0, 1, 0, 3, 0, 1, 0, 2, 0, 1, 0,
 624:Core/Src/lz4.c ****                 4, 0, 1, 0, 2, 0, 1, 0, 3, 0, 1, 0, 2, 0, 1, 0,
ARM GAS  /var/folders/b6/0xn3z77n589c481l0rsth7mc0000gn/T//ccW6wNUD.s 			page 18


 625:Core/Src/lz4.c ****             };
 626:Core/Src/lz4.c ****             U64 const mask = 0x0101010101010101ULL;
 627:Core/Src/lz4.c ****             U64 const t = (((val >> 8) - mask) | val) & mask;
 628:Core/Src/lz4.c ****             return ctz7_tab[(t * 0x0080402010080402ULL) >> 57];
 629:Core/Src/lz4.c **** #else
 630:Core/Src/lz4.c ****             /* this method doesn't consume memory space like the previous one,
 631:Core/Src/lz4.c ****              * but it contains several branches,
 632:Core/Src/lz4.c ****              * that may end up slowing execution */
 633:Core/Src/lz4.c ****             static const U32 by32 = sizeof(val)*4;  /* 32 on 64 bits (goal), 16 on 32 bits.
 634:Core/Src/lz4.c ****             Just to avoid some static analyzer complaining about shift by 32 on 32-bits target.
 635:Core/Src/lz4.c ****             Note that this code path is never triggered in 32-bits mode. */
 636:Core/Src/lz4.c ****             unsigned r;
 637:Core/Src/lz4.c ****             if (!(val>>by32)) { r=4; } else { r=0; val>>=by32; }
 638:Core/Src/lz4.c ****             if (!(val>>16)) { r+=2; val>>=8; } else { val>>=24; }
 639:Core/Src/lz4.c ****             r += (!val);
 640:Core/Src/lz4.c ****             return r;
 641:Core/Src/lz4.c **** #endif
 642:Core/Src/lz4.c **** #       endif
 643:Core/Src/lz4.c ****         } else /* 32 bits */ {
 644:Core/Src/lz4.c **** #       if (defined(__clang__) || (defined(__GNUC__) && ((__GNUC__ > 3) || \
 645:Core/Src/lz4.c ****                             ((__GNUC__ == 3) && (__GNUC_MINOR__ >= 4))))) && \
 646:Core/Src/lz4.c ****                                         !defined(LZ4_FORCE_SW_BITCOUNT)
 647:Core/Src/lz4.c ****             return (unsigned)__builtin_clz((U32)val) >> 3;
 648:Core/Src/lz4.c **** #       else
 649:Core/Src/lz4.c ****             val >>= 8;
 650:Core/Src/lz4.c ****             val = ((((val + 0x00FFFF00) | 0x00FFFFFF) + val) |
 651:Core/Src/lz4.c ****               (val + 0x00FF0000)) >> 24;
 652:Core/Src/lz4.c ****             return (unsigned)val ^ 3;
 653:Core/Src/lz4.c **** #       endif
 654:Core/Src/lz4.c ****         }
 655:Core/Src/lz4.c ****     }
 656:Core/Src/lz4.c **** }
 657:Core/Src/lz4.c **** 
 658:Core/Src/lz4.c **** 
 659:Core/Src/lz4.c **** #define STEPSIZE sizeof(reg_t)
 660:Core/Src/lz4.c **** LZ4_FORCE_INLINE
 661:Core/Src/lz4.c **** unsigned LZ4_count(const BYTE* pIn, const BYTE* pMatch, const BYTE* pInLimit)
 662:Core/Src/lz4.c **** {
 663:Core/Src/lz4.c ****     const BYTE* const pStart = pIn;
 664:Core/Src/lz4.c **** 
 665:Core/Src/lz4.c ****     if (likely(pIn < pInLimit-(STEPSIZE-1))) {
 666:Core/Src/lz4.c ****         reg_t const diff = LZ4_read_ARCH(pMatch) ^ LZ4_read_ARCH(pIn);
 667:Core/Src/lz4.c ****         if (!diff) {
 668:Core/Src/lz4.c ****             pIn+=STEPSIZE; pMatch+=STEPSIZE;
 669:Core/Src/lz4.c ****         } else {
 670:Core/Src/lz4.c ****             return LZ4_NbCommonBytes(diff);
 671:Core/Src/lz4.c ****     }   }
 672:Core/Src/lz4.c **** 
 673:Core/Src/lz4.c ****     while (likely(pIn < pInLimit-(STEPSIZE-1))) {
 674:Core/Src/lz4.c ****         reg_t const diff = LZ4_read_ARCH(pMatch) ^ LZ4_read_ARCH(pIn);
 675:Core/Src/lz4.c ****         if (!diff) { pIn+=STEPSIZE; pMatch+=STEPSIZE; continue; }
 676:Core/Src/lz4.c ****         pIn += LZ4_NbCommonBytes(diff);
 677:Core/Src/lz4.c ****         return (unsigned)(pIn - pStart);
 678:Core/Src/lz4.c ****     }
 679:Core/Src/lz4.c **** 
 680:Core/Src/lz4.c ****     if ((STEPSIZE==8) && (pIn<(pInLimit-3)) && (LZ4_read32(pMatch) == LZ4_read32(pIn))) { pIn+=4; p
 681:Core/Src/lz4.c ****     if ((pIn<(pInLimit-1)) && (LZ4_read16(pMatch) == LZ4_read16(pIn))) { pIn+=2; pMatch+=2; }
ARM GAS  /var/folders/b6/0xn3z77n589c481l0rsth7mc0000gn/T//ccW6wNUD.s 			page 19


 682:Core/Src/lz4.c ****     if ((pIn<pInLimit) && (*pMatch == *pIn)) pIn++;
 683:Core/Src/lz4.c ****     return (unsigned)(pIn - pStart);
 684:Core/Src/lz4.c **** }
 685:Core/Src/lz4.c **** 
 686:Core/Src/lz4.c **** 
 687:Core/Src/lz4.c **** #ifndef LZ4_COMMONDEFS_ONLY
 688:Core/Src/lz4.c **** /*-************************************
 689:Core/Src/lz4.c **** *  Local Constants
 690:Core/Src/lz4.c **** **************************************/
 691:Core/Src/lz4.c **** static const int LZ4_64Klimit = ((64 KB) + (MFLIMIT-1));
 692:Core/Src/lz4.c **** static const U32 LZ4_skipTrigger = 6;  /* Increase this value ==> compression run slower on incompr
 693:Core/Src/lz4.c **** 
 694:Core/Src/lz4.c **** 
 695:Core/Src/lz4.c **** /*-************************************
 696:Core/Src/lz4.c **** *  Local Structures and types
 697:Core/Src/lz4.c **** **************************************/
 698:Core/Src/lz4.c **** typedef enum { clearedTable = 0, byPtr, byU32, byU16 } tableType_t;
 699:Core/Src/lz4.c **** 
 700:Core/Src/lz4.c **** /**
 701:Core/Src/lz4.c ****  * This enum distinguishes several different modes of accessing previous
 702:Core/Src/lz4.c ****  * content in the stream.
 703:Core/Src/lz4.c ****  *
 704:Core/Src/lz4.c ****  * - noDict        : There is no preceding content.
 705:Core/Src/lz4.c ****  * - withPrefix64k : Table entries up to ctx->dictSize before the current blob
 706:Core/Src/lz4.c ****  *                   blob being compressed are valid and refer to the preceding
 707:Core/Src/lz4.c ****  *                   content (of length ctx->dictSize), which is available
 708:Core/Src/lz4.c ****  *                   contiguously preceding in memory the content currently
 709:Core/Src/lz4.c ****  *                   being compressed.
 710:Core/Src/lz4.c ****  * - usingExtDict  : Like withPrefix64k, but the preceding content is somewhere
 711:Core/Src/lz4.c ****  *                   else in memory, starting at ctx->dictionary with length
 712:Core/Src/lz4.c ****  *                   ctx->dictSize.
 713:Core/Src/lz4.c ****  * - usingDictCtx  : Everything concerning the preceding content is
 714:Core/Src/lz4.c ****  *                   in a separate context, pointed to by ctx->dictCtx.
 715:Core/Src/lz4.c ****  *                   ctx->dictionary, ctx->dictSize, and table entries
 716:Core/Src/lz4.c ****  *                   in the current context that refer to positions
 717:Core/Src/lz4.c ****  *                   preceding the beginning of the current compression are
 718:Core/Src/lz4.c ****  *                   ignored. Instead, ctx->dictCtx->dictionary and ctx->dictCtx
 719:Core/Src/lz4.c ****  *                   ->dictSize describe the location and size of the preceding
 720:Core/Src/lz4.c ****  *                   content, and matches are found by looking in the ctx
 721:Core/Src/lz4.c ****  *                   ->dictCtx->hashTable.
 722:Core/Src/lz4.c ****  */
 723:Core/Src/lz4.c **** typedef enum { noDict = 0, withPrefix64k, usingExtDict, usingDictCtx } dict_directive;
 724:Core/Src/lz4.c **** typedef enum { noDictIssue = 0, dictSmall } dictIssue_directive;
 725:Core/Src/lz4.c **** 
 726:Core/Src/lz4.c **** 
 727:Core/Src/lz4.c **** /*-************************************
 728:Core/Src/lz4.c **** *  Local Utils
 729:Core/Src/lz4.c **** **************************************/
 730:Core/Src/lz4.c **** int LZ4_versionNumber (void) { return LZ4_VERSION_NUMBER; }
 731:Core/Src/lz4.c **** const char* LZ4_versionString(void) { return LZ4_VERSION_STRING; }
 732:Core/Src/lz4.c **** int LZ4_compressBound(int isize)  { return LZ4_COMPRESSBOUND(isize); }
 733:Core/Src/lz4.c **** int LZ4_sizeofState(void) { return sizeof(LZ4_stream_t); }
 734:Core/Src/lz4.c **** 
 735:Core/Src/lz4.c **** 
 736:Core/Src/lz4.c **** /*-****************************************
 737:Core/Src/lz4.c **** *  Internal Definitions, used only in Tests
 738:Core/Src/lz4.c **** *******************************************/
ARM GAS  /var/folders/b6/0xn3z77n589c481l0rsth7mc0000gn/T//ccW6wNUD.s 			page 20


 739:Core/Src/lz4.c **** #if defined (__cplusplus)
 740:Core/Src/lz4.c **** extern "C" {
 741:Core/Src/lz4.c **** #endif
 742:Core/Src/lz4.c **** 
 743:Core/Src/lz4.c **** int LZ4_compress_forceExtDict (LZ4_stream_t* LZ4_dict, const char* source, char* dest, int srcSize)
 744:Core/Src/lz4.c **** 
 745:Core/Src/lz4.c **** int LZ4_decompress_safe_forceExtDict(const char* source, char* dest,
 746:Core/Src/lz4.c ****                                      int compressedSize, int maxOutputSize,
 747:Core/Src/lz4.c ****                                      const void* dictStart, size_t dictSize);
 748:Core/Src/lz4.c **** int LZ4_decompress_safe_partial_forceExtDict(const char* source, char* dest,
 749:Core/Src/lz4.c ****                                      int compressedSize, int targetOutputSize, int dstCapacity,
 750:Core/Src/lz4.c ****                                      const void* dictStart, size_t dictSize);
 751:Core/Src/lz4.c **** #if defined (__cplusplus)
 752:Core/Src/lz4.c **** }
 753:Core/Src/lz4.c **** #endif
 754:Core/Src/lz4.c **** 
 755:Core/Src/lz4.c **** /*-******************************
 756:Core/Src/lz4.c **** *  Compression functions
 757:Core/Src/lz4.c **** ********************************/
 758:Core/Src/lz4.c **** LZ4_FORCE_INLINE U32 LZ4_hash4(U32 sequence, tableType_t const tableType)
 759:Core/Src/lz4.c **** {
 760:Core/Src/lz4.c ****     if (tableType == byU16)
 761:Core/Src/lz4.c ****         return ((sequence * 2654435761U) >> ((MINMATCH*8)-(LZ4_HASHLOG+1)));
 762:Core/Src/lz4.c ****     else
 763:Core/Src/lz4.c ****         return ((sequence * 2654435761U) >> ((MINMATCH*8)-LZ4_HASHLOG));
 764:Core/Src/lz4.c **** }
 765:Core/Src/lz4.c **** 
 766:Core/Src/lz4.c **** LZ4_FORCE_INLINE U32 LZ4_hash5(U64 sequence, tableType_t const tableType)
 767:Core/Src/lz4.c **** {
 768:Core/Src/lz4.c ****     const U32 hashLog = (tableType == byU16) ? LZ4_HASHLOG+1 : LZ4_HASHLOG;
 769:Core/Src/lz4.c ****     if (LZ4_isLittleEndian()) {
 770:Core/Src/lz4.c ****         const U64 prime5bytes = 889523592379ULL;
 771:Core/Src/lz4.c ****         return (U32)(((sequence << 24) * prime5bytes) >> (64 - hashLog));
 772:Core/Src/lz4.c ****     } else {
 773:Core/Src/lz4.c ****         const U64 prime8bytes = 11400714785074694791ULL;
 774:Core/Src/lz4.c ****         return (U32)(((sequence >> 24) * prime8bytes) >> (64 - hashLog));
 775:Core/Src/lz4.c ****     }
 776:Core/Src/lz4.c **** }
 777:Core/Src/lz4.c **** 
 778:Core/Src/lz4.c **** LZ4_FORCE_INLINE U32 LZ4_hashPosition(const void* const p, tableType_t const tableType)
 779:Core/Src/lz4.c **** {
 780:Core/Src/lz4.c ****     if ((sizeof(reg_t)==8) && (tableType != byU16)) return LZ4_hash5(LZ4_read_ARCH(p), tableType);
 781:Core/Src/lz4.c ****     return LZ4_hash4(LZ4_read32(p), tableType);
 782:Core/Src/lz4.c **** }
 783:Core/Src/lz4.c **** 
 784:Core/Src/lz4.c **** LZ4_FORCE_INLINE void LZ4_clearHash(U32 h, void* tableBase, tableType_t const tableType)
 785:Core/Src/lz4.c **** {
 786:Core/Src/lz4.c ****     switch (tableType)
 787:Core/Src/lz4.c ****     {
 788:Core/Src/lz4.c ****     default: /* fallthrough */
 789:Core/Src/lz4.c ****     case clearedTable: { /* illegal! */ assert(0); return; }
 790:Core/Src/lz4.c ****     case byPtr: { const BYTE** hashTable = (const BYTE**)tableBase; hashTable[h] = NULL; return; }
 791:Core/Src/lz4.c ****     case byU32: { U32* hashTable = (U32*) tableBase; hashTable[h] = 0; return; }
 792:Core/Src/lz4.c ****     case byU16: { U16* hashTable = (U16*) tableBase; hashTable[h] = 0; return; }
 793:Core/Src/lz4.c ****     }
 794:Core/Src/lz4.c **** }
 795:Core/Src/lz4.c **** 
ARM GAS  /var/folders/b6/0xn3z77n589c481l0rsth7mc0000gn/T//ccW6wNUD.s 			page 21


 796:Core/Src/lz4.c **** LZ4_FORCE_INLINE void LZ4_putIndexOnHash(U32 idx, U32 h, void* tableBase, tableType_t const tableTy
 797:Core/Src/lz4.c **** {
 798:Core/Src/lz4.c ****     switch (tableType)
 799:Core/Src/lz4.c ****     {
 800:Core/Src/lz4.c ****     default: /* fallthrough */
 801:Core/Src/lz4.c ****     case clearedTable: /* fallthrough */
 802:Core/Src/lz4.c ****     case byPtr: { /* illegal! */ assert(0); return; }
 803:Core/Src/lz4.c ****     case byU32: { U32* hashTable = (U32*) tableBase; hashTable[h] = idx; return; }
 804:Core/Src/lz4.c ****     case byU16: { U16* hashTable = (U16*) tableBase; assert(idx < 65536); hashTable[h] = (U16)idx; 
 805:Core/Src/lz4.c ****     }
 806:Core/Src/lz4.c **** }
 807:Core/Src/lz4.c **** 
 808:Core/Src/lz4.c **** LZ4_FORCE_INLINE void LZ4_putPositionOnHash(const BYTE* p, U32 h,
 809:Core/Src/lz4.c ****                                   void* tableBase, tableType_t const tableType)
 810:Core/Src/lz4.c **** {
 811:Core/Src/lz4.c ****     assert(tableType == byPtr); (void)tableType;
 812:Core/Src/lz4.c ****     { const BYTE** hashTable = (const BYTE**)tableBase; hashTable[h] = p; return; }
 813:Core/Src/lz4.c **** }
 814:Core/Src/lz4.c **** 
 815:Core/Src/lz4.c **** LZ4_FORCE_INLINE void LZ4_putPosition(const BYTE* p, void* tableBase, tableType_t tableType)
 816:Core/Src/lz4.c **** {
 817:Core/Src/lz4.c ****     U32 const h = LZ4_hashPosition(p, tableType);
 818:Core/Src/lz4.c ****     LZ4_putPositionOnHash(p, h, tableBase, tableType);
 819:Core/Src/lz4.c **** }
 820:Core/Src/lz4.c **** 
 821:Core/Src/lz4.c **** /* LZ4_getIndexOnHash() :
 822:Core/Src/lz4.c ****  * Index of match position registered in hash table.
 823:Core/Src/lz4.c ****  * hash position must be calculated by using base+index, or dictBase+index.
 824:Core/Src/lz4.c ****  * Assumption 1 : only valid if tableType == byU32 or byU16.
 825:Core/Src/lz4.c ****  * Assumption 2 : h is presumed valid (within limits of hash table)
 826:Core/Src/lz4.c ****  */
 827:Core/Src/lz4.c **** LZ4_FORCE_INLINE U32 LZ4_getIndexOnHash(U32 h, const void* tableBase, tableType_t tableType)
 828:Core/Src/lz4.c **** {
 829:Core/Src/lz4.c ****     LZ4_STATIC_ASSERT(LZ4_MEMORY_USAGE > 2);
 830:Core/Src/lz4.c ****     if (tableType == byU32) {
 831:Core/Src/lz4.c ****         const U32* const hashTable = (const U32*) tableBase;
 832:Core/Src/lz4.c ****         assert(h < (1U << (LZ4_MEMORY_USAGE-2)));
 833:Core/Src/lz4.c ****         return hashTable[h];
 834:Core/Src/lz4.c ****     }
 835:Core/Src/lz4.c ****     if (tableType == byU16) {
 836:Core/Src/lz4.c ****         const U16* const hashTable = (const U16*) tableBase;
 837:Core/Src/lz4.c ****         assert(h < (1U << (LZ4_MEMORY_USAGE-1)));
 838:Core/Src/lz4.c ****         return hashTable[h];
 839:Core/Src/lz4.c ****     }
 840:Core/Src/lz4.c ****     assert(0); return 0;  /* forbidden case */
 841:Core/Src/lz4.c **** }
 842:Core/Src/lz4.c **** 
 843:Core/Src/lz4.c **** static const BYTE* LZ4_getPositionOnHash(U32 h, const void* tableBase, tableType_t tableType)
 844:Core/Src/lz4.c **** {
 358              		.loc 1 844 1 view -0
 359              		.cfi_startproc
 360              		@ args = 0, pretend = 0, frame = 0
 361              		@ frame_needed = 0, uses_anonymous_args = 0
 362              		@ link register save eliminated.
 845:Core/Src/lz4.c ****     assert(tableType == byPtr); (void)tableType;
 363              		.loc 1 845 5 view .LVU66
 364              		.loc 1 845 33 view .LVU67
ARM GAS  /var/folders/b6/0xn3z77n589c481l0rsth7mc0000gn/T//ccW6wNUD.s 			page 22


 365              	.LBB2993:
 846:Core/Src/lz4.c ****     { const BYTE* const* hashTable = (const BYTE* const*) tableBase; return hashTable[h]; }
 366              		.loc 1 846 7 view .LVU68
 367              		.loc 1 846 70 view .LVU69
 368              		.loc 1 846 86 is_stmt 0 view .LVU70
 369 0000 8000     		lsls	r0, r0, #2
 370              	.LVL26:
 371              		.loc 1 846 86 view .LVU71
 372 0002 4058     		ldr	r0, [r0, r1]
 373              	.LBE2993:
 847:Core/Src/lz4.c **** }
 374              		.loc 1 847 1 view .LVU72
 375              		@ sp needed
 376 0004 7047     		bx	lr
 377              		.cfi_endproc
 378              	.LFE24:
 380              		.section	.text.LZ4_stream_t_alignment,"ax",%progbits
 381              		.align	1
 382              		.syntax unified
 383              		.code	16
 384              		.thumb_func
 385              		.fpu softvfp
 387              	LZ4_stream_t_alignment:
 388              	.LFB36:
 848:Core/Src/lz4.c **** 
 849:Core/Src/lz4.c **** LZ4_FORCE_INLINE const BYTE*
 850:Core/Src/lz4.c **** LZ4_getPosition(const BYTE* p,
 851:Core/Src/lz4.c ****                 const void* tableBase, tableType_t tableType)
 852:Core/Src/lz4.c **** {
 853:Core/Src/lz4.c ****     U32 const h = LZ4_hashPosition(p, tableType);
 854:Core/Src/lz4.c ****     return LZ4_getPositionOnHash(h, tableBase, tableType);
 855:Core/Src/lz4.c **** }
 856:Core/Src/lz4.c **** 
 857:Core/Src/lz4.c **** LZ4_FORCE_INLINE void
 858:Core/Src/lz4.c **** LZ4_prepareTable(LZ4_stream_t_internal* const cctx,
 859:Core/Src/lz4.c ****            const int inputSize,
 860:Core/Src/lz4.c ****            const tableType_t tableType) {
 861:Core/Src/lz4.c ****     /* If the table hasn't been used, it's guaranteed to be zeroed out, and is
 862:Core/Src/lz4.c ****      * therefore safe to use no matter what mode we're in. Otherwise, we figure
 863:Core/Src/lz4.c ****      * out if it's safe to leave as is or whether it needs to be reset.
 864:Core/Src/lz4.c ****      */
 865:Core/Src/lz4.c ****     if ((tableType_t)cctx->tableType != clearedTable) {
 866:Core/Src/lz4.c ****         assert(inputSize >= 0);
 867:Core/Src/lz4.c ****         if ((tableType_t)cctx->tableType != tableType
 868:Core/Src/lz4.c ****           || ((tableType == byU16) && cctx->currentOffset + (unsigned)inputSize >= 0xFFFFU)
 869:Core/Src/lz4.c ****           || ((tableType == byU32) && cctx->currentOffset > 1 GB)
 870:Core/Src/lz4.c ****           || tableType == byPtr
 871:Core/Src/lz4.c ****           || inputSize >= 4 KB)
 872:Core/Src/lz4.c ****         {
 873:Core/Src/lz4.c ****             DEBUGLOG(4, "LZ4_prepareTable: Resetting table in %p", cctx);
 874:Core/Src/lz4.c ****             MEM_INIT(cctx->hashTable, 0, LZ4_HASHTABLESIZE);
 875:Core/Src/lz4.c ****             cctx->currentOffset = 0;
 876:Core/Src/lz4.c ****             cctx->tableType = (U32)clearedTable;
 877:Core/Src/lz4.c ****         } else {
 878:Core/Src/lz4.c ****             DEBUGLOG(4, "LZ4_prepareTable: Re-use hash table (no reset)");
 879:Core/Src/lz4.c ****         }
 880:Core/Src/lz4.c ****     }
ARM GAS  /var/folders/b6/0xn3z77n589c481l0rsth7mc0000gn/T//ccW6wNUD.s 			page 23


 881:Core/Src/lz4.c **** 
 882:Core/Src/lz4.c ****     /* Adding a gap, so all previous entries are > LZ4_DISTANCE_MAX back,
 883:Core/Src/lz4.c ****      * is faster than compressing without a gap.
 884:Core/Src/lz4.c ****      * However, compressing with currentOffset == 0 is faster still,
 885:Core/Src/lz4.c ****      * so we preserve that case.
 886:Core/Src/lz4.c ****      */
 887:Core/Src/lz4.c ****     if (cctx->currentOffset != 0 && tableType == byU32) {
 888:Core/Src/lz4.c ****         DEBUGLOG(5, "LZ4_prepareTable: adding 64KB to currentOffset");
 889:Core/Src/lz4.c ****         cctx->currentOffset += 64 KB;
 890:Core/Src/lz4.c ****     }
 891:Core/Src/lz4.c **** 
 892:Core/Src/lz4.c ****     /* Finally, clear history */
 893:Core/Src/lz4.c ****     cctx->dictCtx = NULL;
 894:Core/Src/lz4.c ****     cctx->dictionary = NULL;
 895:Core/Src/lz4.c ****     cctx->dictSize = 0;
 896:Core/Src/lz4.c **** }
 897:Core/Src/lz4.c **** 
 898:Core/Src/lz4.c **** /** LZ4_compress_generic() :
 899:Core/Src/lz4.c ****  *  inlined, to ensure branches are decided at compilation time.
 900:Core/Src/lz4.c ****  *  Presumed already validated at this stage:
 901:Core/Src/lz4.c ****  *  - source != NULL
 902:Core/Src/lz4.c ****  *  - inputSize > 0
 903:Core/Src/lz4.c ****  */
 904:Core/Src/lz4.c **** LZ4_FORCE_INLINE int LZ4_compress_generic_validated(
 905:Core/Src/lz4.c ****                  LZ4_stream_t_internal* const cctx,
 906:Core/Src/lz4.c ****                  const char* const source,
 907:Core/Src/lz4.c ****                  char* const dest,
 908:Core/Src/lz4.c ****                  const int inputSize,
 909:Core/Src/lz4.c ****                  int*  inputConsumed, /* only written when outputDirective == fillOutput */
 910:Core/Src/lz4.c ****                  const int maxOutputSize,
 911:Core/Src/lz4.c ****                  const limitedOutput_directive outputDirective,
 912:Core/Src/lz4.c ****                  const tableType_t tableType,
 913:Core/Src/lz4.c ****                  const dict_directive dictDirective,
 914:Core/Src/lz4.c ****                  const dictIssue_directive dictIssue,
 915:Core/Src/lz4.c ****                  const int acceleration)
 916:Core/Src/lz4.c **** {
 917:Core/Src/lz4.c ****     int result;
 918:Core/Src/lz4.c ****     const BYTE* ip = (const BYTE*) source;
 919:Core/Src/lz4.c **** 
 920:Core/Src/lz4.c ****     U32 const startIndex = cctx->currentOffset;
 921:Core/Src/lz4.c ****     const BYTE* base = (const BYTE*) source - startIndex;
 922:Core/Src/lz4.c ****     const BYTE* lowLimit;
 923:Core/Src/lz4.c **** 
 924:Core/Src/lz4.c ****     const LZ4_stream_t_internal* dictCtx = (const LZ4_stream_t_internal*) cctx->dictCtx;
 925:Core/Src/lz4.c ****     const BYTE* const dictionary =
 926:Core/Src/lz4.c ****         dictDirective == usingDictCtx ? dictCtx->dictionary : cctx->dictionary;
 927:Core/Src/lz4.c ****     const U32 dictSize =
 928:Core/Src/lz4.c ****         dictDirective == usingDictCtx ? dictCtx->dictSize : cctx->dictSize;
 929:Core/Src/lz4.c ****     const U32 dictDelta = (dictDirective == usingDictCtx) ? startIndex - dictCtx->currentOffset : 0
 930:Core/Src/lz4.c **** 
 931:Core/Src/lz4.c ****     int const maybe_extMem = (dictDirective == usingExtDict) || (dictDirective == usingDictCtx);
 932:Core/Src/lz4.c ****     U32 const prefixIdxLimit = startIndex - dictSize;   /* used when dictDirective == dictSmall */
 933:Core/Src/lz4.c ****     const BYTE* const dictEnd = dictionary ? dictionary + dictSize : dictionary;
 934:Core/Src/lz4.c ****     const BYTE* anchor = (const BYTE*) source;
 935:Core/Src/lz4.c ****     const BYTE* const iend = ip + inputSize;
 936:Core/Src/lz4.c ****     const BYTE* const mflimitPlusOne = iend - MFLIMIT + 1;
 937:Core/Src/lz4.c ****     const BYTE* const matchlimit = iend - LASTLITERALS;
ARM GAS  /var/folders/b6/0xn3z77n589c481l0rsth7mc0000gn/T//ccW6wNUD.s 			page 24


 938:Core/Src/lz4.c **** 
 939:Core/Src/lz4.c ****     /* the dictCtx currentOffset is indexed on the start of the dictionary,
 940:Core/Src/lz4.c ****      * while a dictionary in the current context precedes the currentOffset */
 941:Core/Src/lz4.c ****     const BYTE* dictBase = (dictionary == NULL) ? NULL :
 942:Core/Src/lz4.c ****                            (dictDirective == usingDictCtx) ?
 943:Core/Src/lz4.c ****                             dictionary + dictSize - dictCtx->currentOffset :
 944:Core/Src/lz4.c ****                             dictionary + dictSize - startIndex;
 945:Core/Src/lz4.c **** 
 946:Core/Src/lz4.c ****     BYTE* op = (BYTE*) dest;
 947:Core/Src/lz4.c ****     BYTE* const olimit = op + maxOutputSize;
 948:Core/Src/lz4.c **** 
 949:Core/Src/lz4.c ****     U32 offset = 0;
 950:Core/Src/lz4.c ****     U32 forwardH;
 951:Core/Src/lz4.c **** 
 952:Core/Src/lz4.c ****     DEBUGLOG(5, "LZ4_compress_generic_validated: srcSize=%i, tableType=%u", inputSize, tableType);
 953:Core/Src/lz4.c ****     assert(ip != NULL);
 954:Core/Src/lz4.c ****     /* If init conditions are not met, we don't have to mark stream
 955:Core/Src/lz4.c ****      * as having dirty context, since no action was taken yet */
 956:Core/Src/lz4.c ****     if (outputDirective == fillOutput && maxOutputSize < 1) { return 0; } /* Impossible to store an
 957:Core/Src/lz4.c ****     if ((tableType == byU16) && (inputSize>=LZ4_64Klimit)) { return 0; }  /* Size too large (not wi
 958:Core/Src/lz4.c ****     if (tableType==byPtr) assert(dictDirective==noDict);      /* only supported use case with byPtr
 959:Core/Src/lz4.c ****     assert(acceleration >= 1);
 960:Core/Src/lz4.c **** 
 961:Core/Src/lz4.c ****     lowLimit = (const BYTE*)source - (dictDirective == withPrefix64k ? dictSize : 0);
 962:Core/Src/lz4.c **** 
 963:Core/Src/lz4.c ****     /* Update context state */
 964:Core/Src/lz4.c ****     if (dictDirective == usingDictCtx) {
 965:Core/Src/lz4.c ****         /* Subsequent linked blocks can't use the dictionary. */
 966:Core/Src/lz4.c ****         /* Instead, they use the block we just compressed. */
 967:Core/Src/lz4.c ****         cctx->dictCtx = NULL;
 968:Core/Src/lz4.c ****         cctx->dictSize = (U32)inputSize;
 969:Core/Src/lz4.c ****     } else {
 970:Core/Src/lz4.c ****         cctx->dictSize += (U32)inputSize;
 971:Core/Src/lz4.c ****     }
 972:Core/Src/lz4.c ****     cctx->currentOffset += (U32)inputSize;
 973:Core/Src/lz4.c ****     cctx->tableType = (U32)tableType;
 974:Core/Src/lz4.c **** 
 975:Core/Src/lz4.c ****     if (inputSize<LZ4_minLength) goto _last_literals;        /* Input too small, no compression (al
 976:Core/Src/lz4.c **** 
 977:Core/Src/lz4.c ****     /* First Byte */
 978:Core/Src/lz4.c ****     {   U32 const h = LZ4_hashPosition(ip, tableType);
 979:Core/Src/lz4.c ****         if (tableType == byPtr) {
 980:Core/Src/lz4.c ****             LZ4_putPositionOnHash(ip, h, cctx->hashTable, tableType);
 981:Core/Src/lz4.c ****         } else {
 982:Core/Src/lz4.c ****             LZ4_putIndexOnHash(startIndex, h, cctx->hashTable, tableType);
 983:Core/Src/lz4.c ****     }   }
 984:Core/Src/lz4.c ****     ip++; forwardH = LZ4_hashPosition(ip, tableType);
 985:Core/Src/lz4.c **** 
 986:Core/Src/lz4.c ****     /* Main Loop */
 987:Core/Src/lz4.c ****     for ( ; ; ) {
 988:Core/Src/lz4.c ****         const BYTE* match;
 989:Core/Src/lz4.c ****         BYTE* token;
 990:Core/Src/lz4.c ****         const BYTE* filledIp;
 991:Core/Src/lz4.c **** 
 992:Core/Src/lz4.c ****         /* Find a match */
 993:Core/Src/lz4.c ****         if (tableType == byPtr) {
 994:Core/Src/lz4.c ****             const BYTE* forwardIp = ip;
ARM GAS  /var/folders/b6/0xn3z77n589c481l0rsth7mc0000gn/T//ccW6wNUD.s 			page 25


 995:Core/Src/lz4.c ****             int step = 1;
 996:Core/Src/lz4.c ****             int searchMatchNb = acceleration << LZ4_skipTrigger;
 997:Core/Src/lz4.c ****             do {
 998:Core/Src/lz4.c ****                 U32 const h = forwardH;
 999:Core/Src/lz4.c ****                 ip = forwardIp;
1000:Core/Src/lz4.c ****                 forwardIp += step;
1001:Core/Src/lz4.c ****                 step = (searchMatchNb++ >> LZ4_skipTrigger);
1002:Core/Src/lz4.c **** 
1003:Core/Src/lz4.c ****                 if (unlikely(forwardIp > mflimitPlusOne)) goto _last_literals;
1004:Core/Src/lz4.c ****                 assert(ip < mflimitPlusOne);
1005:Core/Src/lz4.c **** 
1006:Core/Src/lz4.c ****                 match = LZ4_getPositionOnHash(h, cctx->hashTable, tableType);
1007:Core/Src/lz4.c ****                 forwardH = LZ4_hashPosition(forwardIp, tableType);
1008:Core/Src/lz4.c ****                 LZ4_putPositionOnHash(ip, h, cctx->hashTable, tableType);
1009:Core/Src/lz4.c **** 
1010:Core/Src/lz4.c ****             } while ( (match+LZ4_DISTANCE_MAX < ip)
1011:Core/Src/lz4.c ****                    || (LZ4_read32(match) != LZ4_read32(ip)) );
1012:Core/Src/lz4.c **** 
1013:Core/Src/lz4.c ****         } else {   /* byU32, byU16 */
1014:Core/Src/lz4.c **** 
1015:Core/Src/lz4.c ****             const BYTE* forwardIp = ip;
1016:Core/Src/lz4.c ****             int step = 1;
1017:Core/Src/lz4.c ****             int searchMatchNb = acceleration << LZ4_skipTrigger;
1018:Core/Src/lz4.c ****             do {
1019:Core/Src/lz4.c ****                 U32 const h = forwardH;
1020:Core/Src/lz4.c ****                 U32 const current = (U32)(forwardIp - base);
1021:Core/Src/lz4.c ****                 U32 matchIndex = LZ4_getIndexOnHash(h, cctx->hashTable, tableType);
1022:Core/Src/lz4.c ****                 assert(matchIndex <= current);
1023:Core/Src/lz4.c ****                 assert(forwardIp - base < (ptrdiff_t)(2 GB - 1));
1024:Core/Src/lz4.c ****                 ip = forwardIp;
1025:Core/Src/lz4.c ****                 forwardIp += step;
1026:Core/Src/lz4.c ****                 step = (searchMatchNb++ >> LZ4_skipTrigger);
1027:Core/Src/lz4.c **** 
1028:Core/Src/lz4.c ****                 if (unlikely(forwardIp > mflimitPlusOne)) goto _last_literals;
1029:Core/Src/lz4.c ****                 assert(ip < mflimitPlusOne);
1030:Core/Src/lz4.c **** 
1031:Core/Src/lz4.c ****                 if (dictDirective == usingDictCtx) {
1032:Core/Src/lz4.c ****                     if (matchIndex < startIndex) {
1033:Core/Src/lz4.c ****                         /* there was no match, try the dictionary */
1034:Core/Src/lz4.c ****                         assert(tableType == byU32);
1035:Core/Src/lz4.c ****                         matchIndex = LZ4_getIndexOnHash(h, dictCtx->hashTable, byU32);
1036:Core/Src/lz4.c ****                         match = dictBase + matchIndex;
1037:Core/Src/lz4.c ****                         matchIndex += dictDelta;   /* make dictCtx index comparable with current co
1038:Core/Src/lz4.c ****                         lowLimit = dictionary;
1039:Core/Src/lz4.c ****                     } else {
1040:Core/Src/lz4.c ****                         match = base + matchIndex;
1041:Core/Src/lz4.c ****                         lowLimit = (const BYTE*)source;
1042:Core/Src/lz4.c ****                     }
1043:Core/Src/lz4.c ****                 } else if (dictDirective == usingExtDict) {
1044:Core/Src/lz4.c ****                     if (matchIndex < startIndex) {
1045:Core/Src/lz4.c ****                         DEBUGLOG(7, "extDict candidate: matchIndex=%5u  <  startIndex=%5u", matchIn
1046:Core/Src/lz4.c ****                         assert(startIndex - matchIndex >= MINMATCH);
1047:Core/Src/lz4.c ****                         assert(dictBase);
1048:Core/Src/lz4.c ****                         match = dictBase + matchIndex;
1049:Core/Src/lz4.c ****                         lowLimit = dictionary;
1050:Core/Src/lz4.c ****                     } else {
1051:Core/Src/lz4.c ****                         match = base + matchIndex;
ARM GAS  /var/folders/b6/0xn3z77n589c481l0rsth7mc0000gn/T//ccW6wNUD.s 			page 26


1052:Core/Src/lz4.c ****                         lowLimit = (const BYTE*)source;
1053:Core/Src/lz4.c ****                     }
1054:Core/Src/lz4.c ****                 } else {   /* single continuous memory segment */
1055:Core/Src/lz4.c ****                     match = base + matchIndex;
1056:Core/Src/lz4.c ****                 }
1057:Core/Src/lz4.c ****                 forwardH = LZ4_hashPosition(forwardIp, tableType);
1058:Core/Src/lz4.c ****                 LZ4_putIndexOnHash(current, h, cctx->hashTable, tableType);
1059:Core/Src/lz4.c **** 
1060:Core/Src/lz4.c ****                 DEBUGLOG(7, "candidate at pos=%u  (offset=%u \n", matchIndex, current - matchIndex)
1061:Core/Src/lz4.c ****                 if ((dictIssue == dictSmall) && (matchIndex < prefixIdxLimit)) { continue; }    /* 
1062:Core/Src/lz4.c ****                 assert(matchIndex < current);
1063:Core/Src/lz4.c ****                 if ( ((tableType != byU16) || (LZ4_DISTANCE_MAX < LZ4_DISTANCE_ABSOLUTE_MAX))
1064:Core/Src/lz4.c ****                   && (matchIndex+LZ4_DISTANCE_MAX < current)) {
1065:Core/Src/lz4.c ****                     continue;
1066:Core/Src/lz4.c ****                 } /* too far */
1067:Core/Src/lz4.c ****                 assert((current - matchIndex) <= LZ4_DISTANCE_MAX);  /* match now expected within d
1068:Core/Src/lz4.c **** 
1069:Core/Src/lz4.c ****                 if (LZ4_read32(match) == LZ4_read32(ip)) {
1070:Core/Src/lz4.c ****                     if (maybe_extMem) offset = current - matchIndex;
1071:Core/Src/lz4.c ****                     break;   /* match found */
1072:Core/Src/lz4.c ****                 }
1073:Core/Src/lz4.c **** 
1074:Core/Src/lz4.c ****             } while(1);
1075:Core/Src/lz4.c ****         }
1076:Core/Src/lz4.c **** 
1077:Core/Src/lz4.c ****         /* Catch up */
1078:Core/Src/lz4.c ****         filledIp = ip;
1079:Core/Src/lz4.c ****         while (((ip>anchor) & (match > lowLimit)) && (unlikely(ip[-1]==match[-1]))) { ip--; match--
1080:Core/Src/lz4.c **** 
1081:Core/Src/lz4.c ****         /* Encode Literals */
1082:Core/Src/lz4.c ****         {   unsigned const litLength = (unsigned)(ip - anchor);
1083:Core/Src/lz4.c ****             token = op++;
1084:Core/Src/lz4.c ****             if ((outputDirective == limitedOutput) &&  /* Check output buffer overflow */
1085:Core/Src/lz4.c ****                 (unlikely(op + litLength + (2 + 1 + LASTLITERALS) + (litLength/255) > olimit)) ) {
1086:Core/Src/lz4.c ****                 return 0;   /* cannot compress within `dst` budget. Stored indexes in hash table ar
1087:Core/Src/lz4.c ****             }
1088:Core/Src/lz4.c ****             if ((outputDirective == fillOutput) &&
1089:Core/Src/lz4.c ****                 (unlikely(op + (litLength+240)/255 /* litlen */ + litLength /* literals */ + 2 /* o
1090:Core/Src/lz4.c ****                 op--;
1091:Core/Src/lz4.c ****                 goto _last_literals;
1092:Core/Src/lz4.c ****             }
1093:Core/Src/lz4.c ****             if (litLength >= RUN_MASK) {
1094:Core/Src/lz4.c ****                 int len = (int)(litLength - RUN_MASK);
1095:Core/Src/lz4.c ****                 *token = (RUN_MASK<<ML_BITS);
1096:Core/Src/lz4.c ****                 for(; len >= 255 ; len-=255) *op++ = 255;
1097:Core/Src/lz4.c ****                 *op++ = (BYTE)len;
1098:Core/Src/lz4.c ****             }
1099:Core/Src/lz4.c ****             else *token = (BYTE)(litLength<<ML_BITS);
1100:Core/Src/lz4.c **** 
1101:Core/Src/lz4.c ****             /* Copy Literals */
1102:Core/Src/lz4.c ****             LZ4_wildCopy8(op, anchor, op+litLength);
1103:Core/Src/lz4.c ****             op+=litLength;
1104:Core/Src/lz4.c ****             DEBUGLOG(6, "seq.start:%i, literals=%u, match.start:%i",
1105:Core/Src/lz4.c ****                         (int)(anchor-(const BYTE*)source), litLength, (int)(ip-(const BYTE*)source)
1106:Core/Src/lz4.c ****         }
1107:Core/Src/lz4.c **** 
1108:Core/Src/lz4.c **** _next_match:
ARM GAS  /var/folders/b6/0xn3z77n589c481l0rsth7mc0000gn/T//ccW6wNUD.s 			page 27


1109:Core/Src/lz4.c ****         /* at this stage, the following variables must be correctly set :
1110:Core/Src/lz4.c ****          * - ip : at start of LZ operation
1111:Core/Src/lz4.c ****          * - match : at start of previous pattern occurrence; can be within current prefix, or with
1112:Core/Src/lz4.c ****          * - offset : if maybe_ext_memSegment==1 (constant)
1113:Core/Src/lz4.c ****          * - lowLimit : must be == dictionary to mean "match is within extDict"; must be == source 
1114:Core/Src/lz4.c ****          * - token and *token : position to write 4-bits for match length; higher 4-bits for litera
1115:Core/Src/lz4.c ****          */
1116:Core/Src/lz4.c **** 
1117:Core/Src/lz4.c ****         if ((outputDirective == fillOutput) &&
1118:Core/Src/lz4.c ****             (op + 2 /* offset */ + 1 /* token */ + MFLIMIT - MINMATCH /* min last literals so last 
1119:Core/Src/lz4.c ****             /* the match was too close to the end, rewind and go to last literals */
1120:Core/Src/lz4.c ****             op = token;
1121:Core/Src/lz4.c ****             goto _last_literals;
1122:Core/Src/lz4.c ****         }
1123:Core/Src/lz4.c **** 
1124:Core/Src/lz4.c ****         /* Encode Offset */
1125:Core/Src/lz4.c ****         if (maybe_extMem) {   /* static test */
1126:Core/Src/lz4.c ****             DEBUGLOG(6, "             with offset=%u  (ext if > %i)", offset, (int)(ip - (const BYT
1127:Core/Src/lz4.c ****             assert(offset <= LZ4_DISTANCE_MAX && offset > 0);
1128:Core/Src/lz4.c ****             LZ4_writeLE16(op, (U16)offset); op+=2;
1129:Core/Src/lz4.c ****         } else  {
1130:Core/Src/lz4.c ****             DEBUGLOG(6, "             with offset=%u  (same segment)", (U32)(ip - match));
1131:Core/Src/lz4.c ****             assert(ip-match <= LZ4_DISTANCE_MAX);
1132:Core/Src/lz4.c ****             LZ4_writeLE16(op, (U16)(ip - match)); op+=2;
1133:Core/Src/lz4.c ****         }
1134:Core/Src/lz4.c **** 
1135:Core/Src/lz4.c ****         /* Encode MatchLength */
1136:Core/Src/lz4.c ****         {   unsigned matchCode;
1137:Core/Src/lz4.c **** 
1138:Core/Src/lz4.c ****             if ( (dictDirective==usingExtDict || dictDirective==usingDictCtx)
1139:Core/Src/lz4.c ****               && (lowLimit==dictionary) /* match within extDict */ ) {
1140:Core/Src/lz4.c ****                 const BYTE* limit = ip + (dictEnd-match);
1141:Core/Src/lz4.c ****                 assert(dictEnd > match);
1142:Core/Src/lz4.c ****                 if (limit > matchlimit) limit = matchlimit;
1143:Core/Src/lz4.c ****                 matchCode = LZ4_count(ip+MINMATCH, match+MINMATCH, limit);
1144:Core/Src/lz4.c ****                 ip += (size_t)matchCode + MINMATCH;
1145:Core/Src/lz4.c ****                 if (ip==limit) {
1146:Core/Src/lz4.c ****                     unsigned const more = LZ4_count(limit, (const BYTE*)source, matchlimit);
1147:Core/Src/lz4.c ****                     matchCode += more;
1148:Core/Src/lz4.c ****                     ip += more;
1149:Core/Src/lz4.c ****                 }
1150:Core/Src/lz4.c ****                 DEBUGLOG(6, "             with matchLength=%u starting in extDict", matchCode+MINMA
1151:Core/Src/lz4.c ****             } else {
1152:Core/Src/lz4.c ****                 matchCode = LZ4_count(ip+MINMATCH, match+MINMATCH, matchlimit);
1153:Core/Src/lz4.c ****                 ip += (size_t)matchCode + MINMATCH;
1154:Core/Src/lz4.c ****                 DEBUGLOG(6, "             with matchLength=%u", matchCode+MINMATCH);
1155:Core/Src/lz4.c ****             }
1156:Core/Src/lz4.c **** 
1157:Core/Src/lz4.c ****             if ((outputDirective) &&    /* Check output buffer overflow */
1158:Core/Src/lz4.c ****                 (unlikely(op + (1 + LASTLITERALS) + (matchCode+240)/255 > olimit)) ) {
1159:Core/Src/lz4.c ****                 if (outputDirective == fillOutput) {
1160:Core/Src/lz4.c ****                     /* Match description too long : reduce it */
1161:Core/Src/lz4.c ****                     U32 newMatchCode = 15 /* in token */ - 1 /* to avoid needing a zero byte */ + (
1162:Core/Src/lz4.c ****                     ip -= matchCode - newMatchCode;
1163:Core/Src/lz4.c ****                     assert(newMatchCode < matchCode);
1164:Core/Src/lz4.c ****                     matchCode = newMatchCode;
1165:Core/Src/lz4.c ****                     if (unlikely(ip <= filledIp)) {
ARM GAS  /var/folders/b6/0xn3z77n589c481l0rsth7mc0000gn/T//ccW6wNUD.s 			page 28


1166:Core/Src/lz4.c ****                         /* We have already filled up to filledIp so if ip ends up less than filledI
1167:Core/Src/lz4.c ****                          * we have positions in the hash table beyond the current position. This is
1168:Core/Src/lz4.c ****                          * a problem if we reuse the hash table. So we have to remove these positio
1169:Core/Src/lz4.c ****                          * from the hash table.
1170:Core/Src/lz4.c ****                          */
1171:Core/Src/lz4.c ****                         const BYTE* ptr;
1172:Core/Src/lz4.c ****                         DEBUGLOG(5, "Clearing %u positions", (U32)(filledIp - ip));
1173:Core/Src/lz4.c ****                         for (ptr = ip; ptr <= filledIp; ++ptr) {
1174:Core/Src/lz4.c ****                             U32 const h = LZ4_hashPosition(ptr, tableType);
1175:Core/Src/lz4.c ****                             LZ4_clearHash(h, cctx->hashTable, tableType);
1176:Core/Src/lz4.c ****                         }
1177:Core/Src/lz4.c ****                     }
1178:Core/Src/lz4.c ****                 } else {
1179:Core/Src/lz4.c ****                     assert(outputDirective == limitedOutput);
1180:Core/Src/lz4.c ****                     return 0;   /* cannot compress within `dst` budget. Stored indexes in hash tabl
1181:Core/Src/lz4.c ****                 }
1182:Core/Src/lz4.c ****             }
1183:Core/Src/lz4.c ****             if (matchCode >= ML_MASK) {
1184:Core/Src/lz4.c ****                 *token += ML_MASK;
1185:Core/Src/lz4.c ****                 matchCode -= ML_MASK;
1186:Core/Src/lz4.c ****                 LZ4_write32(op, 0xFFFFFFFF);
1187:Core/Src/lz4.c ****                 while (matchCode >= 4*255) {
1188:Core/Src/lz4.c ****                     op+=4;
1189:Core/Src/lz4.c ****                     LZ4_write32(op, 0xFFFFFFFF);
1190:Core/Src/lz4.c ****                     matchCode -= 4*255;
1191:Core/Src/lz4.c ****                 }
1192:Core/Src/lz4.c ****                 op += matchCode / 255;
1193:Core/Src/lz4.c ****                 *op++ = (BYTE)(matchCode % 255);
1194:Core/Src/lz4.c ****             } else
1195:Core/Src/lz4.c ****                 *token += (BYTE)(matchCode);
1196:Core/Src/lz4.c ****         }
1197:Core/Src/lz4.c ****         /* Ensure we have enough space for the last literals. */
1198:Core/Src/lz4.c ****         assert(!(outputDirective == fillOutput && op + 1 + LASTLITERALS > olimit));
1199:Core/Src/lz4.c **** 
1200:Core/Src/lz4.c ****         anchor = ip;
1201:Core/Src/lz4.c **** 
1202:Core/Src/lz4.c ****         /* Test end of chunk */
1203:Core/Src/lz4.c ****         if (ip >= mflimitPlusOne) break;
1204:Core/Src/lz4.c **** 
1205:Core/Src/lz4.c ****         /* Fill table */
1206:Core/Src/lz4.c ****         {   U32 const h = LZ4_hashPosition(ip-2, tableType);
1207:Core/Src/lz4.c ****             if (tableType == byPtr) {
1208:Core/Src/lz4.c ****                 LZ4_putPositionOnHash(ip-2, h, cctx->hashTable, tableType);
1209:Core/Src/lz4.c ****             } else {
1210:Core/Src/lz4.c ****                 U32 const idx = (U32)((ip-2) - base);
1211:Core/Src/lz4.c ****                 LZ4_putIndexOnHash(idx, h, cctx->hashTable, tableType);
1212:Core/Src/lz4.c ****         }   }
1213:Core/Src/lz4.c **** 
1214:Core/Src/lz4.c ****         /* Test next position */
1215:Core/Src/lz4.c ****         if (tableType == byPtr) {
1216:Core/Src/lz4.c **** 
1217:Core/Src/lz4.c ****             match = LZ4_getPosition(ip, cctx->hashTable, tableType);
1218:Core/Src/lz4.c ****             LZ4_putPosition(ip, cctx->hashTable, tableType);
1219:Core/Src/lz4.c ****             if ( (match+LZ4_DISTANCE_MAX >= ip)
1220:Core/Src/lz4.c ****               && (LZ4_read32(match) == LZ4_read32(ip)) )
1221:Core/Src/lz4.c ****             { token=op++; *token=0; goto _next_match; }
1222:Core/Src/lz4.c **** 
ARM GAS  /var/folders/b6/0xn3z77n589c481l0rsth7mc0000gn/T//ccW6wNUD.s 			page 29


1223:Core/Src/lz4.c ****         } else {   /* byU32, byU16 */
1224:Core/Src/lz4.c **** 
1225:Core/Src/lz4.c ****             U32 const h = LZ4_hashPosition(ip, tableType);
1226:Core/Src/lz4.c ****             U32 const current = (U32)(ip-base);
1227:Core/Src/lz4.c ****             U32 matchIndex = LZ4_getIndexOnHash(h, cctx->hashTable, tableType);
1228:Core/Src/lz4.c ****             assert(matchIndex < current);
1229:Core/Src/lz4.c ****             if (dictDirective == usingDictCtx) {
1230:Core/Src/lz4.c ****                 if (matchIndex < startIndex) {
1231:Core/Src/lz4.c ****                     /* there was no match, try the dictionary */
1232:Core/Src/lz4.c ****                     assert(tableType == byU32);
1233:Core/Src/lz4.c ****                     matchIndex = LZ4_getIndexOnHash(h, dictCtx->hashTable, byU32);
1234:Core/Src/lz4.c ****                     match = dictBase + matchIndex;
1235:Core/Src/lz4.c ****                     lowLimit = dictionary;   /* required for match length counter */
1236:Core/Src/lz4.c ****                     matchIndex += dictDelta;
1237:Core/Src/lz4.c ****                 } else {
1238:Core/Src/lz4.c ****                     match = base + matchIndex;
1239:Core/Src/lz4.c ****                     lowLimit = (const BYTE*)source;  /* required for match length counter */
1240:Core/Src/lz4.c ****                 }
1241:Core/Src/lz4.c ****             } else if (dictDirective==usingExtDict) {
1242:Core/Src/lz4.c ****                 if (matchIndex < startIndex) {
1243:Core/Src/lz4.c ****                     assert(dictBase);
1244:Core/Src/lz4.c ****                     match = dictBase + matchIndex;
1245:Core/Src/lz4.c ****                     lowLimit = dictionary;   /* required for match length counter */
1246:Core/Src/lz4.c ****                 } else {
1247:Core/Src/lz4.c ****                     match = base + matchIndex;
1248:Core/Src/lz4.c ****                     lowLimit = (const BYTE*)source;   /* required for match length counter */
1249:Core/Src/lz4.c ****                 }
1250:Core/Src/lz4.c ****             } else {   /* single memory segment */
1251:Core/Src/lz4.c ****                 match = base + matchIndex;
1252:Core/Src/lz4.c ****             }
1253:Core/Src/lz4.c ****             LZ4_putIndexOnHash(current, h, cctx->hashTable, tableType);
1254:Core/Src/lz4.c ****             assert(matchIndex < current);
1255:Core/Src/lz4.c ****             if ( ((dictIssue==dictSmall) ? (matchIndex >= prefixIdxLimit) : 1)
1256:Core/Src/lz4.c ****               && (((tableType==byU16) && (LZ4_DISTANCE_MAX == LZ4_DISTANCE_ABSOLUTE_MAX)) ? 1 : (ma
1257:Core/Src/lz4.c ****               && (LZ4_read32(match) == LZ4_read32(ip)) ) {
1258:Core/Src/lz4.c ****                 token=op++;
1259:Core/Src/lz4.c ****                 *token=0;
1260:Core/Src/lz4.c ****                 if (maybe_extMem) offset = current - matchIndex;
1261:Core/Src/lz4.c ****                 DEBUGLOG(6, "seq.start:%i, literals=%u, match.start:%i",
1262:Core/Src/lz4.c ****                             (int)(anchor-(const BYTE*)source), 0, (int)(ip-(const BYTE*)source));
1263:Core/Src/lz4.c ****                 goto _next_match;
1264:Core/Src/lz4.c ****             }
1265:Core/Src/lz4.c ****         }
1266:Core/Src/lz4.c **** 
1267:Core/Src/lz4.c ****         /* Prepare next loop */
1268:Core/Src/lz4.c ****         forwardH = LZ4_hashPosition(++ip, tableType);
1269:Core/Src/lz4.c **** 
1270:Core/Src/lz4.c ****     }
1271:Core/Src/lz4.c **** 
1272:Core/Src/lz4.c **** _last_literals:
1273:Core/Src/lz4.c ****     /* Encode Last Literals */
1274:Core/Src/lz4.c ****     {   size_t lastRun = (size_t)(iend - anchor);
1275:Core/Src/lz4.c ****         if ( (outputDirective) &&  /* Check output buffer overflow */
1276:Core/Src/lz4.c ****             (op + lastRun + 1 + ((lastRun+255-RUN_MASK)/255) > olimit)) {
1277:Core/Src/lz4.c ****             if (outputDirective == fillOutput) {
1278:Core/Src/lz4.c ****                 /* adapt lastRun to fill 'dst' */
1279:Core/Src/lz4.c ****                 assert(olimit >= op);
ARM GAS  /var/folders/b6/0xn3z77n589c481l0rsth7mc0000gn/T//ccW6wNUD.s 			page 30


1280:Core/Src/lz4.c ****                 lastRun  = (size_t)(olimit-op) - 1/*token*/;
1281:Core/Src/lz4.c ****                 lastRun -= (lastRun + 256 - RUN_MASK) / 256;  /*additional length tokens*/
1282:Core/Src/lz4.c ****             } else {
1283:Core/Src/lz4.c ****                 assert(outputDirective == limitedOutput);
1284:Core/Src/lz4.c ****                 return 0;   /* cannot compress within `dst` budget. Stored indexes in hash table ar
1285:Core/Src/lz4.c ****             }
1286:Core/Src/lz4.c ****         }
1287:Core/Src/lz4.c ****         DEBUGLOG(6, "Final literal run : %i literals", (int)lastRun);
1288:Core/Src/lz4.c ****         if (lastRun >= RUN_MASK) {
1289:Core/Src/lz4.c ****             size_t accumulator = lastRun - RUN_MASK;
1290:Core/Src/lz4.c ****             *op++ = RUN_MASK << ML_BITS;
1291:Core/Src/lz4.c ****             for(; accumulator >= 255 ; accumulator-=255) *op++ = 255;
1292:Core/Src/lz4.c ****             *op++ = (BYTE) accumulator;
1293:Core/Src/lz4.c ****         } else {
1294:Core/Src/lz4.c ****             *op++ = (BYTE)(lastRun<<ML_BITS);
1295:Core/Src/lz4.c ****         }
1296:Core/Src/lz4.c ****         LZ4_memcpy(op, anchor, lastRun);
1297:Core/Src/lz4.c ****         ip = anchor + lastRun;
1298:Core/Src/lz4.c ****         op += lastRun;
1299:Core/Src/lz4.c ****     }
1300:Core/Src/lz4.c **** 
1301:Core/Src/lz4.c ****     if (outputDirective == fillOutput) {
1302:Core/Src/lz4.c ****         *inputConsumed = (int) (((const char*)ip)-source);
1303:Core/Src/lz4.c ****     }
1304:Core/Src/lz4.c ****     result = (int)(((char*)op) - dest);
1305:Core/Src/lz4.c ****     assert(result > 0);
1306:Core/Src/lz4.c ****     DEBUGLOG(5, "LZ4_compress_generic: compressed %i bytes into %i bytes", inputSize, result);
1307:Core/Src/lz4.c ****     return result;
1308:Core/Src/lz4.c **** }
1309:Core/Src/lz4.c **** 
1310:Core/Src/lz4.c **** /** LZ4_compress_generic() :
1311:Core/Src/lz4.c ****  *  inlined, to ensure branches are decided at compilation time;
1312:Core/Src/lz4.c ****  *  takes care of src == (NULL, 0)
1313:Core/Src/lz4.c ****  *  and forward the rest to LZ4_compress_generic_validated */
1314:Core/Src/lz4.c **** LZ4_FORCE_INLINE int LZ4_compress_generic(
1315:Core/Src/lz4.c ****                  LZ4_stream_t_internal* const cctx,
1316:Core/Src/lz4.c ****                  const char* const src,
1317:Core/Src/lz4.c ****                  char* const dst,
1318:Core/Src/lz4.c ****                  const int srcSize,
1319:Core/Src/lz4.c ****                  int *inputConsumed, /* only written when outputDirective == fillOutput */
1320:Core/Src/lz4.c ****                  const int dstCapacity,
1321:Core/Src/lz4.c ****                  const limitedOutput_directive outputDirective,
1322:Core/Src/lz4.c ****                  const tableType_t tableType,
1323:Core/Src/lz4.c ****                  const dict_directive dictDirective,
1324:Core/Src/lz4.c ****                  const dictIssue_directive dictIssue,
1325:Core/Src/lz4.c ****                  const int acceleration)
1326:Core/Src/lz4.c **** {
1327:Core/Src/lz4.c ****     DEBUGLOG(5, "LZ4_compress_generic: srcSize=%i, dstCapacity=%i",
1328:Core/Src/lz4.c ****                 srcSize, dstCapacity);
1329:Core/Src/lz4.c **** 
1330:Core/Src/lz4.c ****     if ((U32)srcSize > (U32)LZ4_MAX_INPUT_SIZE) { return 0; }  /* Unsupported srcSize, too large (o
1331:Core/Src/lz4.c ****     if (srcSize == 0) {   /* src == NULL supported if srcSize == 0 */
1332:Core/Src/lz4.c ****         if (outputDirective != notLimited && dstCapacity <= 0) return 0;  /* no output, can't write
1333:Core/Src/lz4.c ****         DEBUGLOG(5, "Generating an empty block");
1334:Core/Src/lz4.c ****         assert(outputDirective == notLimited || dstCapacity >= 1);
1335:Core/Src/lz4.c ****         assert(dst != NULL);
1336:Core/Src/lz4.c ****         dst[0] = 0;
ARM GAS  /var/folders/b6/0xn3z77n589c481l0rsth7mc0000gn/T//ccW6wNUD.s 			page 31


1337:Core/Src/lz4.c ****         if (outputDirective == fillOutput) {
1338:Core/Src/lz4.c ****             assert (inputConsumed != NULL);
1339:Core/Src/lz4.c ****             *inputConsumed = 0;
1340:Core/Src/lz4.c ****         }
1341:Core/Src/lz4.c ****         return 1;
1342:Core/Src/lz4.c ****     }
1343:Core/Src/lz4.c ****     assert(src != NULL);
1344:Core/Src/lz4.c **** 
1345:Core/Src/lz4.c ****     return LZ4_compress_generic_validated(cctx, src, dst, srcSize,
1346:Core/Src/lz4.c ****                 inputConsumed, /* only written into if outputDirective == fillOutput */
1347:Core/Src/lz4.c ****                 dstCapacity, outputDirective,
1348:Core/Src/lz4.c ****                 tableType, dictDirective, dictIssue, acceleration);
1349:Core/Src/lz4.c **** }
1350:Core/Src/lz4.c **** 
1351:Core/Src/lz4.c **** 
1352:Core/Src/lz4.c **** int LZ4_compress_fast_extState(void* state, const char* source, char* dest, int inputSize, int maxO
1353:Core/Src/lz4.c **** {
1354:Core/Src/lz4.c ****     LZ4_stream_t_internal* const ctx = & LZ4_initStream(state, sizeof(LZ4_stream_t)) -> internal_do
1355:Core/Src/lz4.c ****     assert(ctx != NULL);
1356:Core/Src/lz4.c ****     if (acceleration < 1) acceleration = LZ4_ACCELERATION_DEFAULT;
1357:Core/Src/lz4.c ****     if (acceleration > LZ4_ACCELERATION_MAX) acceleration = LZ4_ACCELERATION_MAX;
1358:Core/Src/lz4.c ****     if (maxOutputSize >= LZ4_compressBound(inputSize)) {
1359:Core/Src/lz4.c ****         if (inputSize < LZ4_64Klimit) {
1360:Core/Src/lz4.c ****             return LZ4_compress_generic(ctx, source, dest, inputSize, NULL, 0, notLimited, byU16, n
1361:Core/Src/lz4.c ****         } else {
1362:Core/Src/lz4.c ****             const tableType_t tableType = ((sizeof(void*)==4) && ((uptrval)source > LZ4_DISTANCE_MA
1363:Core/Src/lz4.c ****             return LZ4_compress_generic(ctx, source, dest, inputSize, NULL, 0, notLimited, tableTyp
1364:Core/Src/lz4.c ****         }
1365:Core/Src/lz4.c ****     } else {
1366:Core/Src/lz4.c ****         if (inputSize < LZ4_64Klimit) {
1367:Core/Src/lz4.c ****             return LZ4_compress_generic(ctx, source, dest, inputSize, NULL, maxOutputSize, limitedO
1368:Core/Src/lz4.c ****         } else {
1369:Core/Src/lz4.c ****             const tableType_t tableType = ((sizeof(void*)==4) && ((uptrval)source > LZ4_DISTANCE_MA
1370:Core/Src/lz4.c ****             return LZ4_compress_generic(ctx, source, dest, inputSize, NULL, maxOutputSize, limitedO
1371:Core/Src/lz4.c ****         }
1372:Core/Src/lz4.c ****     }
1373:Core/Src/lz4.c **** }
1374:Core/Src/lz4.c **** 
1375:Core/Src/lz4.c **** /**
1376:Core/Src/lz4.c ****  * LZ4_compress_fast_extState_fastReset() :
1377:Core/Src/lz4.c ****  * A variant of LZ4_compress_fast_extState().
1378:Core/Src/lz4.c ****  *
1379:Core/Src/lz4.c ****  * Using this variant avoids an expensive initialization step. It is only safe
1380:Core/Src/lz4.c ****  * to call if the state buffer is known to be correctly initialized already
1381:Core/Src/lz4.c ****  * (see comment in lz4.h on LZ4_resetStream_fast() for a definition of
1382:Core/Src/lz4.c ****  * "correctly initialized").
1383:Core/Src/lz4.c ****  */
1384:Core/Src/lz4.c **** int LZ4_compress_fast_extState_fastReset(void* state, const char* src, char* dst, int srcSize, int 
1385:Core/Src/lz4.c **** {
1386:Core/Src/lz4.c ****     LZ4_stream_t_internal* ctx = &((LZ4_stream_t*)state)->internal_donotuse;
1387:Core/Src/lz4.c ****     if (acceleration < 1) acceleration = LZ4_ACCELERATION_DEFAULT;
1388:Core/Src/lz4.c ****     if (acceleration > LZ4_ACCELERATION_MAX) acceleration = LZ4_ACCELERATION_MAX;
1389:Core/Src/lz4.c **** 
1390:Core/Src/lz4.c ****     if (dstCapacity >= LZ4_compressBound(srcSize)) {
1391:Core/Src/lz4.c ****         if (srcSize < LZ4_64Klimit) {
1392:Core/Src/lz4.c ****             const tableType_t tableType = byU16;
1393:Core/Src/lz4.c ****             LZ4_prepareTable(ctx, srcSize, tableType);
ARM GAS  /var/folders/b6/0xn3z77n589c481l0rsth7mc0000gn/T//ccW6wNUD.s 			page 32


1394:Core/Src/lz4.c ****             if (ctx->currentOffset) {
1395:Core/Src/lz4.c ****                 return LZ4_compress_generic(ctx, src, dst, srcSize, NULL, 0, notLimited, tableType,
1396:Core/Src/lz4.c ****             } else {
1397:Core/Src/lz4.c ****                 return LZ4_compress_generic(ctx, src, dst, srcSize, NULL, 0, notLimited, tableType,
1398:Core/Src/lz4.c ****             }
1399:Core/Src/lz4.c ****         } else {
1400:Core/Src/lz4.c ****             const tableType_t tableType = ((sizeof(void*)==4) && ((uptrval)src > LZ4_DISTANCE_MAX))
1401:Core/Src/lz4.c ****             LZ4_prepareTable(ctx, srcSize, tableType);
1402:Core/Src/lz4.c ****             return LZ4_compress_generic(ctx, src, dst, srcSize, NULL, 0, notLimited, tableType, noD
1403:Core/Src/lz4.c ****         }
1404:Core/Src/lz4.c ****     } else {
1405:Core/Src/lz4.c ****         if (srcSize < LZ4_64Klimit) {
1406:Core/Src/lz4.c ****             const tableType_t tableType = byU16;
1407:Core/Src/lz4.c ****             LZ4_prepareTable(ctx, srcSize, tableType);
1408:Core/Src/lz4.c ****             if (ctx->currentOffset) {
1409:Core/Src/lz4.c ****                 return LZ4_compress_generic(ctx, src, dst, srcSize, NULL, dstCapacity, limitedOutpu
1410:Core/Src/lz4.c ****             } else {
1411:Core/Src/lz4.c ****                 return LZ4_compress_generic(ctx, src, dst, srcSize, NULL, dstCapacity, limitedOutpu
1412:Core/Src/lz4.c ****             }
1413:Core/Src/lz4.c ****         } else {
1414:Core/Src/lz4.c ****             const tableType_t tableType = ((sizeof(void*)==4) && ((uptrval)src > LZ4_DISTANCE_MAX))
1415:Core/Src/lz4.c ****             LZ4_prepareTable(ctx, srcSize, tableType);
1416:Core/Src/lz4.c ****             return LZ4_compress_generic(ctx, src, dst, srcSize, NULL, dstCapacity, limitedOutput, t
1417:Core/Src/lz4.c ****         }
1418:Core/Src/lz4.c ****     }
1419:Core/Src/lz4.c **** }
1420:Core/Src/lz4.c **** 
1421:Core/Src/lz4.c **** 
1422:Core/Src/lz4.c **** int LZ4_compress_fast(const char* source, char* dest, int inputSize, int maxOutputSize, int acceler
1423:Core/Src/lz4.c **** {
1424:Core/Src/lz4.c ****     int result;
1425:Core/Src/lz4.c **** #if (LZ4_HEAPMODE)
1426:Core/Src/lz4.c ****     LZ4_stream_t* ctxPtr = (LZ4_stream_t*)ALLOC(sizeof(LZ4_stream_t));   /* malloc-calloc always pr
1427:Core/Src/lz4.c ****     if (ctxPtr == NULL) return 0;
1428:Core/Src/lz4.c **** #else
1429:Core/Src/lz4.c ****     LZ4_stream_t ctx;
1430:Core/Src/lz4.c ****     LZ4_stream_t* const ctxPtr = &ctx;
1431:Core/Src/lz4.c **** #endif
1432:Core/Src/lz4.c ****     result = LZ4_compress_fast_extState(ctxPtr, source, dest, inputSize, maxOutputSize, acceleratio
1433:Core/Src/lz4.c **** 
1434:Core/Src/lz4.c **** #if (LZ4_HEAPMODE)
1435:Core/Src/lz4.c ****     FREEMEM(ctxPtr);
1436:Core/Src/lz4.c **** #endif
1437:Core/Src/lz4.c ****     return result;
1438:Core/Src/lz4.c **** }
1439:Core/Src/lz4.c **** 
1440:Core/Src/lz4.c **** 
1441:Core/Src/lz4.c **** int LZ4_compress_default(const char* src, char* dst, int srcSize, int maxOutputSize)
1442:Core/Src/lz4.c **** {
1443:Core/Src/lz4.c ****     return LZ4_compress_fast(src, dst, srcSize, maxOutputSize, 1);
1444:Core/Src/lz4.c **** }
1445:Core/Src/lz4.c **** 
1446:Core/Src/lz4.c **** 
1447:Core/Src/lz4.c **** /* Note!: This function leaves the stream in an unclean/broken state!
1448:Core/Src/lz4.c ****  * It is not safe to subsequently use the same state with a _fastReset() or
1449:Core/Src/lz4.c ****  * _continue() call without resetting it. */
1450:Core/Src/lz4.c **** static int LZ4_compress_destSize_extState (LZ4_stream_t* state, const char* src, char* dst, int* sr
ARM GAS  /var/folders/b6/0xn3z77n589c481l0rsth7mc0000gn/T//ccW6wNUD.s 			page 33


1451:Core/Src/lz4.c **** {
1452:Core/Src/lz4.c ****     void* const s = LZ4_initStream(state, sizeof (*state));
1453:Core/Src/lz4.c ****     assert(s != NULL); (void)s;
1454:Core/Src/lz4.c **** 
1455:Core/Src/lz4.c ****     if (targetDstSize >= LZ4_compressBound(*srcSizePtr)) {  /* compression success is guaranteed */
1456:Core/Src/lz4.c ****         return LZ4_compress_fast_extState(state, src, dst, *srcSizePtr, targetDstSize, 1);
1457:Core/Src/lz4.c ****     } else {
1458:Core/Src/lz4.c ****         if (*srcSizePtr < LZ4_64Klimit) {
1459:Core/Src/lz4.c ****             return LZ4_compress_generic(&state->internal_donotuse, src, dst, *srcSizePtr, srcSizePt
1460:Core/Src/lz4.c ****         } else {
1461:Core/Src/lz4.c ****             tableType_t const addrMode = ((sizeof(void*)==4) && ((uptrval)src > LZ4_DISTANCE_MAX)) 
1462:Core/Src/lz4.c ****             return LZ4_compress_generic(&state->internal_donotuse, src, dst, *srcSizePtr, srcSizePt
1463:Core/Src/lz4.c ****     }   }
1464:Core/Src/lz4.c **** }
1465:Core/Src/lz4.c **** 
1466:Core/Src/lz4.c **** 
1467:Core/Src/lz4.c **** int LZ4_compress_destSize(const char* src, char* dst, int* srcSizePtr, int targetDstSize)
1468:Core/Src/lz4.c **** {
1469:Core/Src/lz4.c **** #if (LZ4_HEAPMODE)
1470:Core/Src/lz4.c ****     LZ4_stream_t* ctx = (LZ4_stream_t*)ALLOC(sizeof(LZ4_stream_t));   /* malloc-calloc always prope
1471:Core/Src/lz4.c ****     if (ctx == NULL) return 0;
1472:Core/Src/lz4.c **** #else
1473:Core/Src/lz4.c ****     LZ4_stream_t ctxBody;
1474:Core/Src/lz4.c ****     LZ4_stream_t* ctx = &ctxBody;
1475:Core/Src/lz4.c **** #endif
1476:Core/Src/lz4.c **** 
1477:Core/Src/lz4.c ****     int result = LZ4_compress_destSize_extState(ctx, src, dst, srcSizePtr, targetDstSize);
1478:Core/Src/lz4.c **** 
1479:Core/Src/lz4.c **** #if (LZ4_HEAPMODE)
1480:Core/Src/lz4.c ****     FREEMEM(ctx);
1481:Core/Src/lz4.c **** #endif
1482:Core/Src/lz4.c ****     return result;
1483:Core/Src/lz4.c **** }
1484:Core/Src/lz4.c **** 
1485:Core/Src/lz4.c **** 
1486:Core/Src/lz4.c **** 
1487:Core/Src/lz4.c **** /*-******************************
1488:Core/Src/lz4.c **** *  Streaming functions
1489:Core/Src/lz4.c **** ********************************/
1490:Core/Src/lz4.c **** 
1491:Core/Src/lz4.c **** #if !defined(LZ4_STATIC_LINKING_ONLY_DISABLE_MEMORY_ALLOCATION)
1492:Core/Src/lz4.c **** LZ4_stream_t* LZ4_createStream(void)
1493:Core/Src/lz4.c **** {
1494:Core/Src/lz4.c ****     LZ4_stream_t* const lz4s = (LZ4_stream_t*)ALLOC(sizeof(LZ4_stream_t));
1495:Core/Src/lz4.c ****     LZ4_STATIC_ASSERT(sizeof(LZ4_stream_t) >= sizeof(LZ4_stream_t_internal));
1496:Core/Src/lz4.c ****     DEBUGLOG(4, "LZ4_createStream %p", lz4s);
1497:Core/Src/lz4.c ****     if (lz4s == NULL) return NULL;
1498:Core/Src/lz4.c ****     LZ4_initStream(lz4s, sizeof(*lz4s));
1499:Core/Src/lz4.c ****     return lz4s;
1500:Core/Src/lz4.c **** }
1501:Core/Src/lz4.c **** #endif
1502:Core/Src/lz4.c **** 
1503:Core/Src/lz4.c **** static size_t LZ4_stream_t_alignment(void)
1504:Core/Src/lz4.c **** {
 389              		.loc 1 1504 1 is_stmt 1 view -0
 390              		.cfi_startproc
 391              		@ args = 0, pretend = 0, frame = 0
ARM GAS  /var/folders/b6/0xn3z77n589c481l0rsth7mc0000gn/T//ccW6wNUD.s 			page 34


 392              		@ frame_needed = 0, uses_anonymous_args = 0
 393              		@ link register save eliminated.
1505:Core/Src/lz4.c **** #if LZ4_ALIGN_TEST
1506:Core/Src/lz4.c ****     typedef struct { char c; LZ4_stream_t t; } t_a;
 394              		.loc 1 1506 5 view .LVU74
1507:Core/Src/lz4.c ****     return sizeof(t_a) - sizeof(LZ4_stream_t);
 395              		.loc 1 1507 5 view .LVU75
1508:Core/Src/lz4.c **** #else
1509:Core/Src/lz4.c ****     return 1;  /* effectively disabled */
1510:Core/Src/lz4.c **** #endif
1511:Core/Src/lz4.c **** }
 396              		.loc 1 1511 1 is_stmt 0 view .LVU76
 397 0000 0420     		movs	r0, #4
 398              		@ sp needed
 399 0002 7047     		bx	lr
 400              		.cfi_endproc
 401              	.LFE36:
 403              		.section	.text.LZ4_renormDictT,"ax",%progbits
 404              		.align	1
 405              		.syntax unified
 406              		.code	16
 407              		.thumb_func
 408              		.fpu softvfp
 410              	LZ4_renormDictT:
 411              	.LVL27:
 412              	.LFB43:
1512:Core/Src/lz4.c **** 
1513:Core/Src/lz4.c **** LZ4_stream_t* LZ4_initStream (void* buffer, size_t size)
1514:Core/Src/lz4.c **** {
1515:Core/Src/lz4.c ****     DEBUGLOG(5, "LZ4_initStream");
1516:Core/Src/lz4.c ****     if (buffer == NULL) { return NULL; }
1517:Core/Src/lz4.c ****     if (size < sizeof(LZ4_stream_t)) { return NULL; }
1518:Core/Src/lz4.c ****     if (!LZ4_isAligned(buffer, LZ4_stream_t_alignment())) return NULL;
1519:Core/Src/lz4.c ****     MEM_INIT(buffer, 0, sizeof(LZ4_stream_t_internal));
1520:Core/Src/lz4.c ****     return (LZ4_stream_t*)buffer;
1521:Core/Src/lz4.c **** }
1522:Core/Src/lz4.c **** 
1523:Core/Src/lz4.c **** /* resetStream is now deprecated,
1524:Core/Src/lz4.c ****  * prefer initStream() which is more general */
1525:Core/Src/lz4.c **** void LZ4_resetStream (LZ4_stream_t* LZ4_stream)
1526:Core/Src/lz4.c **** {
1527:Core/Src/lz4.c ****     DEBUGLOG(5, "LZ4_resetStream (ctx:%p)", LZ4_stream);
1528:Core/Src/lz4.c ****     MEM_INIT(LZ4_stream, 0, sizeof(LZ4_stream_t_internal));
1529:Core/Src/lz4.c **** }
1530:Core/Src/lz4.c **** 
1531:Core/Src/lz4.c **** void LZ4_resetStream_fast(LZ4_stream_t* ctx) {
1532:Core/Src/lz4.c ****     LZ4_prepareTable(&(ctx->internal_donotuse), 0, byU32);
1533:Core/Src/lz4.c **** }
1534:Core/Src/lz4.c **** 
1535:Core/Src/lz4.c **** #if !defined(LZ4_STATIC_LINKING_ONLY_DISABLE_MEMORY_ALLOCATION)
1536:Core/Src/lz4.c **** int LZ4_freeStream (LZ4_stream_t* LZ4_stream)
1537:Core/Src/lz4.c **** {
1538:Core/Src/lz4.c ****     if (!LZ4_stream) return 0;   /* support free on NULL */
1539:Core/Src/lz4.c ****     DEBUGLOG(5, "LZ4_freeStream %p", LZ4_stream);
1540:Core/Src/lz4.c ****     FREEMEM(LZ4_stream);
1541:Core/Src/lz4.c ****     return (0);
1542:Core/Src/lz4.c **** }
ARM GAS  /var/folders/b6/0xn3z77n589c481l0rsth7mc0000gn/T//ccW6wNUD.s 			page 35


1543:Core/Src/lz4.c **** #endif
1544:Core/Src/lz4.c **** 
1545:Core/Src/lz4.c **** 
1546:Core/Src/lz4.c **** #define HASH_UNIT sizeof(reg_t)
1547:Core/Src/lz4.c **** int LZ4_loadDict (LZ4_stream_t* LZ4_dict, const char* dictionary, int dictSize)
1548:Core/Src/lz4.c **** {
1549:Core/Src/lz4.c ****     LZ4_stream_t_internal* dict = &LZ4_dict->internal_donotuse;
1550:Core/Src/lz4.c ****     const tableType_t tableType = byU32;
1551:Core/Src/lz4.c ****     const BYTE* p = (const BYTE*)dictionary;
1552:Core/Src/lz4.c ****     const BYTE* const dictEnd = p + dictSize;
1553:Core/Src/lz4.c ****     U32 idx32;
1554:Core/Src/lz4.c **** 
1555:Core/Src/lz4.c ****     DEBUGLOG(4, "LZ4_loadDict (%i bytes from %p into %p)", dictSize, dictionary, LZ4_dict);
1556:Core/Src/lz4.c **** 
1557:Core/Src/lz4.c ****     /* It's necessary to reset the context,
1558:Core/Src/lz4.c ****      * and not just continue it with prepareTable()
1559:Core/Src/lz4.c ****      * to avoid any risk of generating overflowing matchIndex
1560:Core/Src/lz4.c ****      * when compressing using this dictionary */
1561:Core/Src/lz4.c ****     LZ4_resetStream(LZ4_dict);
1562:Core/Src/lz4.c **** 
1563:Core/Src/lz4.c ****     /* We always increment the offset by 64 KB, since, if the dict is longer,
1564:Core/Src/lz4.c ****      * we truncate it to the last 64k, and if it's shorter, we still want to
1565:Core/Src/lz4.c ****      * advance by a whole window length so we can provide the guarantee that
1566:Core/Src/lz4.c ****      * there are only valid offsets in the window, which allows an optimization
1567:Core/Src/lz4.c ****      * in LZ4_compress_fast_continue() where it uses noDictIssue even when the
1568:Core/Src/lz4.c ****      * dictionary isn't a full 64k. */
1569:Core/Src/lz4.c ****     dict->currentOffset += 64 KB;
1570:Core/Src/lz4.c **** 
1571:Core/Src/lz4.c ****     if (dictSize < (int)HASH_UNIT) {
1572:Core/Src/lz4.c ****         return 0;
1573:Core/Src/lz4.c ****     }
1574:Core/Src/lz4.c **** 
1575:Core/Src/lz4.c ****     if ((dictEnd - p) > 64 KB) p = dictEnd - 64 KB;
1576:Core/Src/lz4.c ****     dict->dictionary = p;
1577:Core/Src/lz4.c ****     dict->dictSize = (U32)(dictEnd - p);
1578:Core/Src/lz4.c ****     dict->tableType = (U32)tableType;
1579:Core/Src/lz4.c ****     idx32 = dict->currentOffset - dict->dictSize;
1580:Core/Src/lz4.c **** 
1581:Core/Src/lz4.c ****     while (p <= dictEnd-HASH_UNIT) {
1582:Core/Src/lz4.c ****         U32 const h = LZ4_hashPosition(p, tableType);
1583:Core/Src/lz4.c ****         LZ4_putIndexOnHash(idx32, h, dict->hashTable, tableType);
1584:Core/Src/lz4.c ****         p+=3; idx32+=3;
1585:Core/Src/lz4.c ****     }
1586:Core/Src/lz4.c **** 
1587:Core/Src/lz4.c ****     return (int)dict->dictSize;
1588:Core/Src/lz4.c **** }
1589:Core/Src/lz4.c **** 
1590:Core/Src/lz4.c **** void LZ4_attach_dictionary(LZ4_stream_t* workingStream, const LZ4_stream_t* dictionaryStream)
1591:Core/Src/lz4.c **** {
1592:Core/Src/lz4.c ****     const LZ4_stream_t_internal* dictCtx = (dictionaryStream == NULL) ? NULL :
1593:Core/Src/lz4.c ****         &(dictionaryStream->internal_donotuse);
1594:Core/Src/lz4.c **** 
1595:Core/Src/lz4.c ****     DEBUGLOG(4, "LZ4_attach_dictionary (%p, %p, size %u)",
1596:Core/Src/lz4.c ****              workingStream, dictionaryStream,
1597:Core/Src/lz4.c ****              dictCtx != NULL ? dictCtx->dictSize : 0);
1598:Core/Src/lz4.c **** 
1599:Core/Src/lz4.c ****     if (dictCtx != NULL) {
ARM GAS  /var/folders/b6/0xn3z77n589c481l0rsth7mc0000gn/T//ccW6wNUD.s 			page 36


1600:Core/Src/lz4.c ****         /* If the current offset is zero, we will never look in the
1601:Core/Src/lz4.c ****          * external dictionary context, since there is no value a table
1602:Core/Src/lz4.c ****          * entry can take that indicate a miss. In that case, we need
1603:Core/Src/lz4.c ****          * to bump the offset to something non-zero.
1604:Core/Src/lz4.c ****          */
1605:Core/Src/lz4.c ****         if (workingStream->internal_donotuse.currentOffset == 0) {
1606:Core/Src/lz4.c ****             workingStream->internal_donotuse.currentOffset = 64 KB;
1607:Core/Src/lz4.c ****         }
1608:Core/Src/lz4.c **** 
1609:Core/Src/lz4.c ****         /* Don't actually attach an empty dictionary.
1610:Core/Src/lz4.c ****          */
1611:Core/Src/lz4.c ****         if (dictCtx->dictSize == 0) {
1612:Core/Src/lz4.c ****             dictCtx = NULL;
1613:Core/Src/lz4.c ****         }
1614:Core/Src/lz4.c ****     }
1615:Core/Src/lz4.c ****     workingStream->internal_donotuse.dictCtx = dictCtx;
1616:Core/Src/lz4.c **** }
1617:Core/Src/lz4.c **** 
1618:Core/Src/lz4.c **** 
1619:Core/Src/lz4.c **** static void LZ4_renormDictT(LZ4_stream_t_internal* LZ4_dict, int nextSize)
1620:Core/Src/lz4.c **** {
 413              		.loc 1 1620 1 is_stmt 1 view -0
 414              		.cfi_startproc
 415              		@ args = 0, pretend = 0, frame = 0
 416              		@ frame_needed = 0, uses_anonymous_args = 0
 417              		.loc 1 1620 1 is_stmt 0 view .LVU78
 418 0000 70B5     		push	{r4, r5, r6, lr}
 419              		.cfi_def_cfa_offset 16
 420              		.cfi_offset 4, -16
 421              		.cfi_offset 5, -12
 422              		.cfi_offset 6, -8
 423              		.cfi_offset 14, -4
1621:Core/Src/lz4.c ****     assert(nextSize >= 0);
 424              		.loc 1 1621 5 is_stmt 1 view .LVU79
1622:Core/Src/lz4.c ****     if (LZ4_dict->currentOffset + (unsigned)nextSize > 0x80000000) {   /* potential ptrdiff_t overf
 425              		.loc 1 1622 5 view .LVU80
 426              		.loc 1 1622 17 is_stmt 0 view .LVU81
 427 0002 194B     		ldr	r3, .L25
 428 0004 C258     		ldr	r2, [r0, r3]
 429              		.loc 1 1622 33 view .LVU82
 430 0006 5318     		adds	r3, r2, r1
 431              		.loc 1 1622 8 view .LVU83
 432 0008 8021     		movs	r1, #128
 433              	.LVL28:
 434              		.loc 1 1622 8 view .LVU84
 435 000a 0906     		lsls	r1, r1, #24
 436 000c 8B42     		cmp	r3, r1
 437 000e 29D9     		bls	.L17
 438              	.LBB2994:
1623:Core/Src/lz4.c ****         /* rescale hash table */
1624:Core/Src/lz4.c ****         U32 const delta = LZ4_dict->currentOffset - 64 KB;
 439              		.loc 1 1624 9 is_stmt 1 view .LVU85
 440              		.loc 1 1624 19 is_stmt 0 view .LVU86
 441 0010 164B     		ldr	r3, .L25+4
 442 0012 D118     		adds	r1, r2, r3
 443              	.LVL29:
1625:Core/Src/lz4.c ****         const BYTE* dictEnd = LZ4_dict->dictionary + LZ4_dict->dictSize;
ARM GAS  /var/folders/b6/0xn3z77n589c481l0rsth7mc0000gn/T//ccW6wNUD.s 			page 37


 444              		.loc 1 1625 9 is_stmt 1 view .LVU87
 445              		.loc 1 1625 39 is_stmt 0 view .LVU88
 446 0014 8023     		movs	r3, #128
 447 0016 DB01     		lsls	r3, r3, #7
 448 0018 C558     		ldr	r5, [r0, r3]
 449              		.loc 1 1625 62 view .LVU89
 450 001a 154B     		ldr	r3, .L25+8
 451 001c C658     		ldr	r6, [r0, r3]
 452              	.LVL30:
1626:Core/Src/lz4.c ****         int i;
 453              		.loc 1 1626 9 is_stmt 1 view .LVU90
1627:Core/Src/lz4.c ****         DEBUGLOG(4, "LZ4_renormDictT");
 454              		.loc 1 1627 9 view .LVU91
 455              		.loc 1 1627 39 view .LVU92
1628:Core/Src/lz4.c ****         for (i=0; i<LZ4_HASH_SIZE_U32; i++) {
 456              		.loc 1 1628 9 view .LVU93
 457              		.loc 1 1628 15 is_stmt 0 view .LVU94
 458 001e 0023     		movs	r3, #0
 459              		.loc 1 1628 9 view .LVU95
 460 0020 03E0     		b	.L19
 461              	.LVL31:
 462              	.L20:
1629:Core/Src/lz4.c ****             if (LZ4_dict->hashTable[i] < delta) LZ4_dict->hashTable[i]=0;
1630:Core/Src/lz4.c ****             else LZ4_dict->hashTable[i] -= delta;
 463              		.loc 1 1630 18 is_stmt 1 view .LVU96
 464              		.loc 1 1630 41 is_stmt 0 view .LVU97
 465 0022 9C00     		lsls	r4, r3, #2
 466 0024 521A     		subs	r2, r2, r1
 467 0026 2250     		str	r2, [r4, r0]
 468              	.L21:
1628:Core/Src/lz4.c ****         for (i=0; i<LZ4_HASH_SIZE_U32; i++) {
 469              		.loc 1 1628 40 is_stmt 1 discriminator 2 view .LVU98
1628:Core/Src/lz4.c ****         for (i=0; i<LZ4_HASH_SIZE_U32; i++) {
 470              		.loc 1 1628 41 is_stmt 0 discriminator 2 view .LVU99
 471 0028 0133     		adds	r3, r3, #1
 472              	.LVL32:
 473              	.L19:
1628:Core/Src/lz4.c ****         for (i=0; i<LZ4_HASH_SIZE_U32; i++) {
 474              		.loc 1 1628 19 is_stmt 1 discriminator 1 view .LVU100
1628:Core/Src/lz4.c ****         for (i=0; i<LZ4_HASH_SIZE_U32; i++) {
 475              		.loc 1 1628 9 is_stmt 0 discriminator 1 view .LVU101
 476 002a 8022     		movs	r2, #128
 477 002c 5201     		lsls	r2, r2, #5
 478 002e 9342     		cmp	r3, r2
 479 0030 07DA     		bge	.L24
1629:Core/Src/lz4.c ****             if (LZ4_dict->hashTable[i] < delta) LZ4_dict->hashTable[i]=0;
 480              		.loc 1 1629 13 is_stmt 1 view .LVU102
1629:Core/Src/lz4.c ****             if (LZ4_dict->hashTable[i] < delta) LZ4_dict->hashTable[i]=0;
 481              		.loc 1 1629 36 is_stmt 0 view .LVU103
 482 0032 9A00     		lsls	r2, r3, #2
 483 0034 1258     		ldr	r2, [r2, r0]
1629:Core/Src/lz4.c ****             if (LZ4_dict->hashTable[i] < delta) LZ4_dict->hashTable[i]=0;
 484              		.loc 1 1629 16 view .LVU104
 485 0036 8A42     		cmp	r2, r1
 486 0038 F3D2     		bcs	.L20
1629:Core/Src/lz4.c ****             if (LZ4_dict->hashTable[i] < delta) LZ4_dict->hashTable[i]=0;
 487              		.loc 1 1629 49 is_stmt 1 discriminator 1 view .LVU105
ARM GAS  /var/folders/b6/0xn3z77n589c481l0rsth7mc0000gn/T//ccW6wNUD.s 			page 38


1629:Core/Src/lz4.c ****             if (LZ4_dict->hashTable[i] < delta) LZ4_dict->hashTable[i]=0;
 488              		.loc 1 1629 71 is_stmt 0 discriminator 1 view .LVU106
 489 003a 9A00     		lsls	r2, r3, #2
 490 003c 0024     		movs	r4, #0
 491 003e 1450     		str	r4, [r2, r0]
 492 0040 F2E7     		b	.L21
 493              	.L24:
1631:Core/Src/lz4.c ****         }
1632:Core/Src/lz4.c ****         LZ4_dict->currentOffset = 64 KB;
 494              		.loc 1 1632 9 is_stmt 1 view .LVU107
 495              		.loc 1 1632 33 is_stmt 0 view .LVU108
 496 0042 8023     		movs	r3, #128
 497              	.LVL33:
 498              		.loc 1 1632 33 view .LVU109
 499 0044 5B02     		lsls	r3, r3, #9
 500 0046 084A     		ldr	r2, .L25
 501 0048 8350     		str	r3, [r0, r2]
1633:Core/Src/lz4.c ****         if (LZ4_dict->dictSize > 64 KB) LZ4_dict->dictSize = 64 KB;
 502              		.loc 1 1633 9 is_stmt 1 view .LVU110
 503              		.loc 1 1633 12 is_stmt 0 view .LVU111
 504 004a 9E42     		cmp	r6, r3
 505 004c 03D9     		bls	.L23
 506              		.loc 1 1633 41 is_stmt 1 discriminator 1 view .LVU112
 507              		.loc 1 1633 60 is_stmt 0 discriminator 1 view .LVU113
 508 004e 084B     		ldr	r3, .L25+8
 509 0050 8022     		movs	r2, #128
 510 0052 5202     		lsls	r2, r2, #9
 511 0054 C250     		str	r2, [r0, r3]
 512              	.L23:
1634:Core/Src/lz4.c ****         LZ4_dict->dictionary = dictEnd - LZ4_dict->dictSize;
 513              		.loc 1 1634 9 is_stmt 1 view .LVU114
 514              		.loc 1 1634 50 is_stmt 0 view .LVU115
 515 0056 064B     		ldr	r3, .L25+8
 516 0058 C358     		ldr	r3, [r0, r3]
 517              		.loc 1 1634 40 view .LVU116
 518 005a F31A     		subs	r3, r6, r3
 519 005c EB18     		adds	r3, r5, r3
 520              		.loc 1 1634 30 view .LVU117
 521 005e 8022     		movs	r2, #128
 522 0060 D201     		lsls	r2, r2, #7
 523 0062 8350     		str	r3, [r0, r2]
 524              	.LVL34:
 525              	.L17:
 526              		.loc 1 1634 30 view .LVU118
 527              	.LBE2994:
1635:Core/Src/lz4.c ****     }
1636:Core/Src/lz4.c **** }
 528              		.loc 1 1636 1 view .LVU119
 529              		@ sp needed
 530 0064 70BD     		pop	{r4, r5, r6, pc}
 531              	.L26:
 532 0066 C046     		.align	2
 533              	.L25:
 534 0068 08400000 		.word	16392
 535 006c 0000FFFF 		.word	-65536
 536 0070 10400000 		.word	16400
 537              		.cfi_endproc
ARM GAS  /var/folders/b6/0xn3z77n589c481l0rsth7mc0000gn/T//ccW6wNUD.s 			page 39


 538              	.LFE43:
 540              		.global	__ctzsi2
 541              		.global	__clzsi2
 542              		.section	.text.LZ4_NbCommonBytes,"ax",%progbits
 543              		.align	1
 544              		.syntax unified
 545              		.code	16
 546              		.thumb_func
 547              		.fpu softvfp
 549              	LZ4_NbCommonBytes:
 550              	.LVL35:
 551              	.LFB10:
 561:Core/Src/lz4.c ****     assert(val != 0);
 552              		.loc 1 561 1 is_stmt 1 view -0
 553              		.cfi_startproc
 554              		@ args = 0, pretend = 0, frame = 0
 555              		@ frame_needed = 0, uses_anonymous_args = 0
 561:Core/Src/lz4.c ****     assert(val != 0);
 556              		.loc 1 561 1 is_stmt 0 view .LVU121
 557 0000 10B5     		push	{r4, lr}
 558              		.cfi_def_cfa_offset 8
 559              		.cfi_offset 4, -8
 560              		.cfi_offset 14, -4
 561 0002 0400     		movs	r4, r0
 562:Core/Src/lz4.c ****     if (LZ4_isLittleEndian()) {
 562              		.loc 1 562 5 is_stmt 1 view .LVU122
 563:Core/Src/lz4.c ****         if (sizeof(val) == 8) {
 563              		.loc 1 563 5 view .LVU123
 563:Core/Src/lz4.c ****         if (sizeof(val) == 8) {
 564              		.loc 1 563 9 is_stmt 0 view .LVU124
 565 0004 FFF7FEFF 		bl	LZ4_isLittleEndian
 566              	.LVL36:
 563:Core/Src/lz4.c ****         if (sizeof(val) == 8) {
 567              		.loc 1 563 8 view .LVU125
 568 0008 0028     		cmp	r0, #0
 569 000a 04D0     		beq	.L28
 564:Core/Src/lz4.c **** #       if defined(_MSC_VER) && (_MSC_VER >= 1800) && (defined(_M_AMD64) && !defined(_M_ARM64EC)) &
 570              		.loc 1 564 9 is_stmt 1 view .LVU126
 600:Core/Src/lz4.c **** #       else
 571              		.loc 1 600 13 view .LVU127
 600:Core/Src/lz4.c **** #       else
 572              		.loc 1 600 30 is_stmt 0 view .LVU128
 573 000c 2000     		movs	r0, r4
 574 000e FFF7FEFF 		bl	__ctzsi2
 575              	.LVL37:
 600:Core/Src/lz4.c **** #       else
 576              		.loc 1 600 54 view .LVU129
 577 0012 C008     		lsrs	r0, r0, #3
 578              	.L27:
 656:Core/Src/lz4.c **** 
 579              		.loc 1 656 1 view .LVU130
 580              		@ sp needed
 581              	.LVL38:
 656:Core/Src/lz4.c **** 
 582              		.loc 1 656 1 view .LVU131
 583 0014 10BD     		pop	{r4, pc}
 584              	.LVL39:
ARM GAS  /var/folders/b6/0xn3z77n589c481l0rsth7mc0000gn/T//ccW6wNUD.s 			page 40


 585              	.L28:
 607:Core/Src/lz4.c **** #       if (defined(__clang__) || (defined(__GNUC__) && ((__GNUC__ > 3) || \
 586              		.loc 1 607 9 is_stmt 1 view .LVU132
 647:Core/Src/lz4.c **** #       else
 587              		.loc 1 647 13 view .LVU133
 647:Core/Src/lz4.c **** #       else
 588              		.loc 1 647 30 is_stmt 0 view .LVU134
 589 0016 2000     		movs	r0, r4
 590 0018 FFF7FEFF 		bl	__clzsi2
 591              	.LVL40:
 647:Core/Src/lz4.c **** #       else
 592              		.loc 1 647 54 view .LVU135
 593 001c C008     		lsrs	r0, r0, #3
 594 001e F9E7     		b	.L27
 595              		.cfi_endproc
 596              	.LFE10:
 598              		.section	.text.LZ4_decompress_safe_partial_withPrefix64k,"ax",%progbits
 599              		.align	1
 600              		.syntax unified
 601              		.code	16
 602              		.thumb_func
 603              		.fpu softvfp
 605              	LZ4_decompress_safe_partial_withPrefix64k:
 606              	.LVL41:
 607              	.LFB55:
1637:Core/Src/lz4.c **** 
1638:Core/Src/lz4.c **** 
1639:Core/Src/lz4.c **** int LZ4_compress_fast_continue (LZ4_stream_t* LZ4_stream,
1640:Core/Src/lz4.c ****                                 const char* source, char* dest,
1641:Core/Src/lz4.c ****                                 int inputSize, int maxOutputSize,
1642:Core/Src/lz4.c ****                                 int acceleration)
1643:Core/Src/lz4.c **** {
1644:Core/Src/lz4.c ****     const tableType_t tableType = byU32;
1645:Core/Src/lz4.c ****     LZ4_stream_t_internal* const streamPtr = &LZ4_stream->internal_donotuse;
1646:Core/Src/lz4.c ****     const char* dictEnd = streamPtr->dictSize ? (const char*)streamPtr->dictionary + streamPtr->dic
1647:Core/Src/lz4.c **** 
1648:Core/Src/lz4.c ****     DEBUGLOG(5, "LZ4_compress_fast_continue (inputSize=%i, dictSize=%u)", inputSize, streamPtr->dic
1649:Core/Src/lz4.c **** 
1650:Core/Src/lz4.c ****     LZ4_renormDictT(streamPtr, inputSize);   /* fix index overflow */
1651:Core/Src/lz4.c ****     if (acceleration < 1) acceleration = LZ4_ACCELERATION_DEFAULT;
1652:Core/Src/lz4.c ****     if (acceleration > LZ4_ACCELERATION_MAX) acceleration = LZ4_ACCELERATION_MAX;
1653:Core/Src/lz4.c **** 
1654:Core/Src/lz4.c ****     /* invalidate tiny dictionaries */
1655:Core/Src/lz4.c ****     if ( (streamPtr->dictSize < 4)     /* tiny dictionary : not enough for a hash */
1656:Core/Src/lz4.c ****       && (dictEnd != source)           /* prefix mode */
1657:Core/Src/lz4.c ****       && (inputSize > 0)               /* tolerance : don't lose history, in case next invocation w
1658:Core/Src/lz4.c ****       && (streamPtr->dictCtx == NULL)  /* usingDictCtx */
1659:Core/Src/lz4.c ****       ) {
1660:Core/Src/lz4.c ****         DEBUGLOG(5, "LZ4_compress_fast_continue: dictSize(%u) at addr:%p is too small", streamPtr->
1661:Core/Src/lz4.c ****         /* remove dictionary existence from history, to employ faster prefix mode */
1662:Core/Src/lz4.c ****         streamPtr->dictSize = 0;
1663:Core/Src/lz4.c ****         streamPtr->dictionary = (const BYTE*)source;
1664:Core/Src/lz4.c ****         dictEnd = source;
1665:Core/Src/lz4.c ****     }
1666:Core/Src/lz4.c **** 
1667:Core/Src/lz4.c ****     /* Check overlapping input/dictionary space */
1668:Core/Src/lz4.c ****     {   const char* const sourceEnd = source + inputSize;
ARM GAS  /var/folders/b6/0xn3z77n589c481l0rsth7mc0000gn/T//ccW6wNUD.s 			page 41


1669:Core/Src/lz4.c ****         if ((sourceEnd > (const char*)streamPtr->dictionary) && (sourceEnd < dictEnd)) {
1670:Core/Src/lz4.c ****             streamPtr->dictSize = (U32)(dictEnd - sourceEnd);
1671:Core/Src/lz4.c ****             if (streamPtr->dictSize > 64 KB) streamPtr->dictSize = 64 KB;
1672:Core/Src/lz4.c ****             if (streamPtr->dictSize < 4) streamPtr->dictSize = 0;
1673:Core/Src/lz4.c ****             streamPtr->dictionary = (const BYTE*)dictEnd - streamPtr->dictSize;
1674:Core/Src/lz4.c ****         }
1675:Core/Src/lz4.c ****     }
1676:Core/Src/lz4.c **** 
1677:Core/Src/lz4.c ****     /* prefix mode : source data follows dictionary */
1678:Core/Src/lz4.c ****     if (dictEnd == source) {
1679:Core/Src/lz4.c ****         if ((streamPtr->dictSize < 64 KB) && (streamPtr->dictSize < streamPtr->currentOffset))
1680:Core/Src/lz4.c ****             return LZ4_compress_generic(streamPtr, source, dest, inputSize, NULL, maxOutputSize, li
1681:Core/Src/lz4.c ****         else
1682:Core/Src/lz4.c ****             return LZ4_compress_generic(streamPtr, source, dest, inputSize, NULL, maxOutputSize, li
1683:Core/Src/lz4.c ****     }
1684:Core/Src/lz4.c **** 
1685:Core/Src/lz4.c ****     /* external dictionary mode */
1686:Core/Src/lz4.c ****     {   int result;
1687:Core/Src/lz4.c ****         if (streamPtr->dictCtx) {
1688:Core/Src/lz4.c ****             /* We depend here on the fact that dictCtx'es (produced by
1689:Core/Src/lz4.c ****              * LZ4_loadDict) guarantee that their tables contain no references
1690:Core/Src/lz4.c ****              * to offsets between dictCtx->currentOffset - 64 KB and
1691:Core/Src/lz4.c ****              * dictCtx->currentOffset - dictCtx->dictSize. This makes it safe
1692:Core/Src/lz4.c ****              * to use noDictIssue even when the dict isn't a full 64 KB.
1693:Core/Src/lz4.c ****              */
1694:Core/Src/lz4.c ****             if (inputSize > 4 KB) {
1695:Core/Src/lz4.c ****                 /* For compressing large blobs, it is faster to pay the setup
1696:Core/Src/lz4.c ****                  * cost to copy the dictionary's tables into the active context,
1697:Core/Src/lz4.c ****                  * so that the compression loop is only looking into one table.
1698:Core/Src/lz4.c ****                  */
1699:Core/Src/lz4.c ****                 LZ4_memcpy(streamPtr, streamPtr->dictCtx, sizeof(*streamPtr));
1700:Core/Src/lz4.c ****                 result = LZ4_compress_generic(streamPtr, source, dest, inputSize, NULL, maxOutputSi
1701:Core/Src/lz4.c ****             } else {
1702:Core/Src/lz4.c ****                 result = LZ4_compress_generic(streamPtr, source, dest, inputSize, NULL, maxOutputSi
1703:Core/Src/lz4.c ****             }
1704:Core/Src/lz4.c ****         } else {  /* small data <= 4 KB */
1705:Core/Src/lz4.c ****             if ((streamPtr->dictSize < 64 KB) && (streamPtr->dictSize < streamPtr->currentOffset)) 
1706:Core/Src/lz4.c ****                 result = LZ4_compress_generic(streamPtr, source, dest, inputSize, NULL, maxOutputSi
1707:Core/Src/lz4.c ****             } else {
1708:Core/Src/lz4.c ****                 result = LZ4_compress_generic(streamPtr, source, dest, inputSize, NULL, maxOutputSi
1709:Core/Src/lz4.c ****             }
1710:Core/Src/lz4.c ****         }
1711:Core/Src/lz4.c ****         streamPtr->dictionary = (const BYTE*)source;
1712:Core/Src/lz4.c ****         streamPtr->dictSize = (U32)inputSize;
1713:Core/Src/lz4.c ****         return result;
1714:Core/Src/lz4.c ****     }
1715:Core/Src/lz4.c **** }
1716:Core/Src/lz4.c **** 
1717:Core/Src/lz4.c **** 
1718:Core/Src/lz4.c **** /* Hidden debug function, to force-test external dictionary mode */
1719:Core/Src/lz4.c **** int LZ4_compress_forceExtDict (LZ4_stream_t* LZ4_dict, const char* source, char* dest, int srcSize)
1720:Core/Src/lz4.c **** {
1721:Core/Src/lz4.c ****     LZ4_stream_t_internal* streamPtr = &LZ4_dict->internal_donotuse;
1722:Core/Src/lz4.c ****     int result;
1723:Core/Src/lz4.c **** 
1724:Core/Src/lz4.c ****     LZ4_renormDictT(streamPtr, srcSize);
1725:Core/Src/lz4.c **** 
ARM GAS  /var/folders/b6/0xn3z77n589c481l0rsth7mc0000gn/T//ccW6wNUD.s 			page 42


1726:Core/Src/lz4.c ****     if ((streamPtr->dictSize < 64 KB) && (streamPtr->dictSize < streamPtr->currentOffset)) {
1727:Core/Src/lz4.c ****         result = LZ4_compress_generic(streamPtr, source, dest, srcSize, NULL, 0, notLimited, byU32,
1728:Core/Src/lz4.c ****     } else {
1729:Core/Src/lz4.c ****         result = LZ4_compress_generic(streamPtr, source, dest, srcSize, NULL, 0, notLimited, byU32,
1730:Core/Src/lz4.c ****     }
1731:Core/Src/lz4.c **** 
1732:Core/Src/lz4.c ****     streamPtr->dictionary = (const BYTE*)source;
1733:Core/Src/lz4.c ****     streamPtr->dictSize = (U32)srcSize;
1734:Core/Src/lz4.c **** 
1735:Core/Src/lz4.c ****     return result;
1736:Core/Src/lz4.c **** }
1737:Core/Src/lz4.c **** 
1738:Core/Src/lz4.c **** 
1739:Core/Src/lz4.c **** /*! LZ4_saveDict() :
1740:Core/Src/lz4.c ****  *  If previously compressed data block is not guaranteed to remain available at its memory locatio
1741:Core/Src/lz4.c ****  *  save it into a safer place (char* safeBuffer).
1742:Core/Src/lz4.c ****  *  Note : no need to call LZ4_loadDict() afterwards, dictionary is immediately usable,
1743:Core/Src/lz4.c ****  *         one can therefore call LZ4_compress_fast_continue() right after.
1744:Core/Src/lz4.c ****  * @return : saved dictionary size in bytes (necessarily <= dictSize), or 0 if error.
1745:Core/Src/lz4.c ****  */
1746:Core/Src/lz4.c **** int LZ4_saveDict (LZ4_stream_t* LZ4_dict, char* safeBuffer, int dictSize)
1747:Core/Src/lz4.c **** {
1748:Core/Src/lz4.c ****     LZ4_stream_t_internal* const dict = &LZ4_dict->internal_donotuse;
1749:Core/Src/lz4.c **** 
1750:Core/Src/lz4.c ****     DEBUGLOG(5, "LZ4_saveDict : dictSize=%i, safeBuffer=%p", dictSize, safeBuffer);
1751:Core/Src/lz4.c **** 
1752:Core/Src/lz4.c ****     if ((U32)dictSize > 64 KB) { dictSize = 64 KB; } /* useless to define a dictionary > 64 KB */
1753:Core/Src/lz4.c ****     if ((U32)dictSize > dict->dictSize) { dictSize = (int)dict->dictSize; }
1754:Core/Src/lz4.c **** 
1755:Core/Src/lz4.c ****     if (safeBuffer == NULL) assert(dictSize == 0);
1756:Core/Src/lz4.c ****     if (dictSize > 0) {
1757:Core/Src/lz4.c ****         const BYTE* const previousDictEnd = dict->dictionary + dict->dictSize;
1758:Core/Src/lz4.c ****         assert(dict->dictionary);
1759:Core/Src/lz4.c ****         LZ4_memmove(safeBuffer, previousDictEnd - dictSize, (size_t)dictSize);
1760:Core/Src/lz4.c ****     }
1761:Core/Src/lz4.c **** 
1762:Core/Src/lz4.c ****     dict->dictionary = (const BYTE*)safeBuffer;
1763:Core/Src/lz4.c ****     dict->dictSize = (U32)dictSize;
1764:Core/Src/lz4.c **** 
1765:Core/Src/lz4.c ****     return dictSize;
1766:Core/Src/lz4.c **** }
1767:Core/Src/lz4.c **** 
1768:Core/Src/lz4.c **** 
1769:Core/Src/lz4.c **** 
1770:Core/Src/lz4.c **** /*-*******************************
1771:Core/Src/lz4.c ****  *  Decompression functions
1772:Core/Src/lz4.c ****  ********************************/
1773:Core/Src/lz4.c **** 
1774:Core/Src/lz4.c **** typedef enum { decode_full_block = 0, partial_decode = 1 } earlyEnd_directive;
1775:Core/Src/lz4.c **** 
1776:Core/Src/lz4.c **** #undef MIN
1777:Core/Src/lz4.c **** #define MIN(a,b)    ( (a) < (b) ? (a) : (b) )
1778:Core/Src/lz4.c **** 
1779:Core/Src/lz4.c **** 
1780:Core/Src/lz4.c **** /* variant for decompress_unsafe()
1781:Core/Src/lz4.c ****  * does not know end of input
1782:Core/Src/lz4.c ****  * presumes input is well formed
ARM GAS  /var/folders/b6/0xn3z77n589c481l0rsth7mc0000gn/T//ccW6wNUD.s 			page 43


1783:Core/Src/lz4.c ****  * note : will consume at least one byte */
1784:Core/Src/lz4.c **** size_t read_long_length_no_check(const BYTE** pp)
1785:Core/Src/lz4.c **** {
1786:Core/Src/lz4.c ****     size_t b, l = 0;
1787:Core/Src/lz4.c ****     do { b = **pp; (*pp)++; l += b; } while (b==255);
1788:Core/Src/lz4.c ****     DEBUGLOG(6, "read_long_length_no_check: +length=%zu using %zu input bytes", l, l/255 + 1)
1789:Core/Src/lz4.c ****     return l;
1790:Core/Src/lz4.c **** }
1791:Core/Src/lz4.c **** 
1792:Core/Src/lz4.c **** /* core decoder variant for LZ4_decompress_fast*()
1793:Core/Src/lz4.c ****  * for legacy support only : these entry points are deprecated.
1794:Core/Src/lz4.c ****  * - Presumes input is correctly formed (no defense vs malformed inputs)
1795:Core/Src/lz4.c ****  * - Does not know input size (presume input buffer is "large enough")
1796:Core/Src/lz4.c ****  * - Decompress a full block (only)
1797:Core/Src/lz4.c ****  * @return : nb of bytes read from input.
1798:Core/Src/lz4.c ****  * Note : this variant is not optimized for speed, just for maintenance.
1799:Core/Src/lz4.c ****  *        the goal is to remove support of decompress_fast*() variants by v2.0
1800:Core/Src/lz4.c **** **/
1801:Core/Src/lz4.c **** LZ4_FORCE_INLINE int
1802:Core/Src/lz4.c **** LZ4_decompress_unsafe_generic(
1803:Core/Src/lz4.c ****                  const BYTE* const istart,
1804:Core/Src/lz4.c ****                  BYTE* const ostart,
1805:Core/Src/lz4.c ****                  int decompressedSize,
1806:Core/Src/lz4.c **** 
1807:Core/Src/lz4.c ****                  size_t prefixSize,
1808:Core/Src/lz4.c ****                  const BYTE* const dictStart,  /* only if dict==usingExtDict */
1809:Core/Src/lz4.c ****                  const size_t dictSize         /* note: =0 if dictStart==NULL */
1810:Core/Src/lz4.c ****                  )
1811:Core/Src/lz4.c **** {
1812:Core/Src/lz4.c ****     const BYTE* ip = istart;
1813:Core/Src/lz4.c ****     BYTE* op = (BYTE*)ostart;
1814:Core/Src/lz4.c ****     BYTE* const oend = ostart + decompressedSize;
1815:Core/Src/lz4.c ****     const BYTE* const prefixStart = ostart - prefixSize;
1816:Core/Src/lz4.c **** 
1817:Core/Src/lz4.c ****     DEBUGLOG(5, "LZ4_decompress_unsafe_generic");
1818:Core/Src/lz4.c ****     if (dictStart == NULL) assert(dictSize == 0);
1819:Core/Src/lz4.c **** 
1820:Core/Src/lz4.c ****     while (1) {
1821:Core/Src/lz4.c ****         /* start new sequence */
1822:Core/Src/lz4.c ****         unsigned token = *ip++;
1823:Core/Src/lz4.c **** 
1824:Core/Src/lz4.c ****         /* literals */
1825:Core/Src/lz4.c ****         {   size_t ll = token >> ML_BITS;
1826:Core/Src/lz4.c ****             if (ll==15) {
1827:Core/Src/lz4.c ****                 /* long literal length */
1828:Core/Src/lz4.c ****                 ll += read_long_length_no_check(&ip);
1829:Core/Src/lz4.c ****             }
1830:Core/Src/lz4.c ****             if ((size_t)(oend-op) < ll) return -1; /* output buffer overflow */
1831:Core/Src/lz4.c ****             LZ4_memmove(op, ip, ll); /* support in-place decompression */
1832:Core/Src/lz4.c ****             op += ll;
1833:Core/Src/lz4.c ****             ip += ll;
1834:Core/Src/lz4.c ****             if ((size_t)(oend-op) < MFLIMIT) {
1835:Core/Src/lz4.c ****                 if (op==oend) break;  /* end of block */
1836:Core/Src/lz4.c ****                 DEBUGLOG(5, "invalid: literals end at distance %zi from end of block", oend-op);
1837:Core/Src/lz4.c ****                 /* incorrect end of block :
1838:Core/Src/lz4.c ****                  * last match must start at least MFLIMIT==12 bytes before end of output block */
1839:Core/Src/lz4.c ****                 return -1;
ARM GAS  /var/folders/b6/0xn3z77n589c481l0rsth7mc0000gn/T//ccW6wNUD.s 			page 44


1840:Core/Src/lz4.c ****         }   }
1841:Core/Src/lz4.c **** 
1842:Core/Src/lz4.c ****         /* match */
1843:Core/Src/lz4.c ****         {   size_t ml = token & 15;
1844:Core/Src/lz4.c ****             size_t const offset = LZ4_readLE16(ip);
1845:Core/Src/lz4.c ****             ip+=2;
1846:Core/Src/lz4.c **** 
1847:Core/Src/lz4.c ****             if (ml==15) {
1848:Core/Src/lz4.c ****                 /* long literal length */
1849:Core/Src/lz4.c ****                 ml += read_long_length_no_check(&ip);
1850:Core/Src/lz4.c ****             }
1851:Core/Src/lz4.c ****             ml += MINMATCH;
1852:Core/Src/lz4.c **** 
1853:Core/Src/lz4.c ****             if ((size_t)(oend-op) < ml) return -1; /* output buffer overflow */
1854:Core/Src/lz4.c **** 
1855:Core/Src/lz4.c ****             {   const BYTE* match = op - offset;
1856:Core/Src/lz4.c **** 
1857:Core/Src/lz4.c ****                 /* out of range */
1858:Core/Src/lz4.c ****                 if (offset > (size_t)(op - prefixStart) + dictSize) {
1859:Core/Src/lz4.c ****                     DEBUGLOG(6, "offset out of range");
1860:Core/Src/lz4.c ****                     return -1;
1861:Core/Src/lz4.c ****                 }
1862:Core/Src/lz4.c **** 
1863:Core/Src/lz4.c ****                 /* check special case : extDict */
1864:Core/Src/lz4.c ****                 if (offset > (size_t)(op - prefixStart)) {
1865:Core/Src/lz4.c ****                     /* extDict scenario */
1866:Core/Src/lz4.c ****                     const BYTE* const dictEnd = dictStart + dictSize;
1867:Core/Src/lz4.c ****                     const BYTE* extMatch = dictEnd - (offset - (size_t)(op-prefixStart));
1868:Core/Src/lz4.c ****                     size_t const extml = (size_t)(dictEnd - extMatch);
1869:Core/Src/lz4.c ****                     if (extml > ml) {
1870:Core/Src/lz4.c ****                         /* match entirely within extDict */
1871:Core/Src/lz4.c ****                         LZ4_memmove(op, extMatch, ml);
1872:Core/Src/lz4.c ****                         op += ml;
1873:Core/Src/lz4.c ****                         ml = 0;
1874:Core/Src/lz4.c ****                     } else {
1875:Core/Src/lz4.c ****                         /* match split between extDict & prefix */
1876:Core/Src/lz4.c ****                         LZ4_memmove(op, extMatch, extml);
1877:Core/Src/lz4.c ****                         op += extml;
1878:Core/Src/lz4.c ****                         ml -= extml;
1879:Core/Src/lz4.c ****                     }
1880:Core/Src/lz4.c ****                     match = prefixStart;
1881:Core/Src/lz4.c ****                 }
1882:Core/Src/lz4.c **** 
1883:Core/Src/lz4.c ****                 /* match copy - slow variant, supporting overlap copy */
1884:Core/Src/lz4.c ****                 {   size_t u;
1885:Core/Src/lz4.c ****                     for (u=0; u<ml; u++) {
1886:Core/Src/lz4.c ****                         op[u] = match[u];
1887:Core/Src/lz4.c ****             }   }   }
1888:Core/Src/lz4.c ****             op += ml;
1889:Core/Src/lz4.c ****             if ((size_t)(oend-op) < LASTLITERALS) {
1890:Core/Src/lz4.c ****                 DEBUGLOG(5, "invalid: match ends at distance %zi from end of block", oend-op);
1891:Core/Src/lz4.c ****                 /* incorrect end of block :
1892:Core/Src/lz4.c ****                  * last match must stop at least LASTLITERALS==5 bytes before end of output block *
1893:Core/Src/lz4.c ****                 return -1;
1894:Core/Src/lz4.c ****             }
1895:Core/Src/lz4.c ****         } /* match */
1896:Core/Src/lz4.c ****     } /* main loop */
ARM GAS  /var/folders/b6/0xn3z77n589c481l0rsth7mc0000gn/T//ccW6wNUD.s 			page 45


1897:Core/Src/lz4.c ****     return (int)(ip - istart);
1898:Core/Src/lz4.c **** }
1899:Core/Src/lz4.c **** 
1900:Core/Src/lz4.c **** 
1901:Core/Src/lz4.c **** /* Read the variable-length literal or match length.
1902:Core/Src/lz4.c ****  *
1903:Core/Src/lz4.c ****  * @ip : input pointer
1904:Core/Src/lz4.c ****  * @ilimit : position after which if length is not decoded, the input is necessarily corrupted.
1905:Core/Src/lz4.c ****  * @initial_check - check ip >= ipmax before start of loop.  Returns initial_error if so.
1906:Core/Src/lz4.c ****  * @error (output) - error code.  Must be set to 0 before call.
1907:Core/Src/lz4.c **** **/
1908:Core/Src/lz4.c **** typedef size_t Rvl_t;
1909:Core/Src/lz4.c **** static const Rvl_t rvl_error = (Rvl_t)(-1);
1910:Core/Src/lz4.c **** LZ4_FORCE_INLINE Rvl_t
1911:Core/Src/lz4.c **** read_variable_length(const BYTE** ip, const BYTE* ilimit,
1912:Core/Src/lz4.c ****                      int initial_check)
1913:Core/Src/lz4.c **** {
1914:Core/Src/lz4.c ****     Rvl_t s, length = 0;
1915:Core/Src/lz4.c ****     assert(ip != NULL);
1916:Core/Src/lz4.c ****     assert(*ip !=  NULL);
1917:Core/Src/lz4.c ****     assert(ilimit != NULL);
1918:Core/Src/lz4.c ****     if (initial_check && unlikely((*ip) >= ilimit)) {    /* read limit reached */
1919:Core/Src/lz4.c ****         return rvl_error;
1920:Core/Src/lz4.c ****     }
1921:Core/Src/lz4.c ****     do {
1922:Core/Src/lz4.c ****         s = **ip;
1923:Core/Src/lz4.c ****         (*ip)++;
1924:Core/Src/lz4.c ****         length += s;
1925:Core/Src/lz4.c ****         if (unlikely((*ip) > ilimit)) {    /* read limit reached */
1926:Core/Src/lz4.c ****             return rvl_error;
1927:Core/Src/lz4.c ****         }
1928:Core/Src/lz4.c ****         /* accumulator overflow detection (32-bit mode only) */
1929:Core/Src/lz4.c ****         if ((sizeof(length)<8) && unlikely(length > ((Rvl_t)(-1)/2)) ) {
1930:Core/Src/lz4.c ****             return rvl_error;
1931:Core/Src/lz4.c ****         }
1932:Core/Src/lz4.c ****     } while (s==255);
1933:Core/Src/lz4.c **** 
1934:Core/Src/lz4.c ****     return length;
1935:Core/Src/lz4.c **** }
1936:Core/Src/lz4.c **** 
1937:Core/Src/lz4.c **** /*! LZ4_decompress_generic() :
1938:Core/Src/lz4.c ****  *  This generic decompression function covers all use cases.
1939:Core/Src/lz4.c ****  *  It shall be instantiated several times, using different sets of directives.
1940:Core/Src/lz4.c ****  *  Note that it is important for performance that this function really get inlined,
1941:Core/Src/lz4.c ****  *  in order to remove useless branches during compilation optimization.
1942:Core/Src/lz4.c ****  */
1943:Core/Src/lz4.c **** LZ4_FORCE_INLINE int
1944:Core/Src/lz4.c **** LZ4_decompress_generic(
1945:Core/Src/lz4.c ****                  const char* const src,
1946:Core/Src/lz4.c ****                  char* const dst,
1947:Core/Src/lz4.c ****                  int srcSize,
1948:Core/Src/lz4.c ****                  int outputSize,         /* If endOnInput==endOnInputSize, this value is `dstCapaci
1949:Core/Src/lz4.c **** 
1950:Core/Src/lz4.c ****                  earlyEnd_directive partialDecoding,  /* full, partial */
1951:Core/Src/lz4.c ****                  dict_directive dict,                 /* noDict, withPrefix64k, usingExtDict */
1952:Core/Src/lz4.c ****                  const BYTE* const lowPrefix,  /* always <= dst, == dst when no prefix */
1953:Core/Src/lz4.c ****                  const BYTE* const dictStart,  /* only if dict==usingExtDict */
ARM GAS  /var/folders/b6/0xn3z77n589c481l0rsth7mc0000gn/T//ccW6wNUD.s 			page 46


1954:Core/Src/lz4.c ****                  const size_t dictSize         /* note : = 0 if noDict */
1955:Core/Src/lz4.c ****                  )
1956:Core/Src/lz4.c **** {
1957:Core/Src/lz4.c ****     if ((src == NULL) || (outputSize < 0)) { return -1; }
1958:Core/Src/lz4.c **** 
1959:Core/Src/lz4.c ****     {   const BYTE* ip = (const BYTE*) src;
1960:Core/Src/lz4.c ****         const BYTE* const iend = ip + srcSize;
1961:Core/Src/lz4.c **** 
1962:Core/Src/lz4.c ****         BYTE* op = (BYTE*) dst;
1963:Core/Src/lz4.c ****         BYTE* const oend = op + outputSize;
1964:Core/Src/lz4.c ****         BYTE* cpy;
1965:Core/Src/lz4.c **** 
1966:Core/Src/lz4.c ****         const BYTE* const dictEnd = (dictStart == NULL) ? NULL : dictStart + dictSize;
1967:Core/Src/lz4.c **** 
1968:Core/Src/lz4.c ****         const int checkOffset = (dictSize < (int)(64 KB));
1969:Core/Src/lz4.c **** 
1970:Core/Src/lz4.c **** 
1971:Core/Src/lz4.c ****         /* Set up the "end" pointers for the shortcut. */
1972:Core/Src/lz4.c ****         const BYTE* const shortiend = iend - 14 /*maxLL*/ - 2 /*offset*/;
1973:Core/Src/lz4.c ****         const BYTE* const shortoend = oend - 14 /*maxLL*/ - 18 /*maxML*/;
1974:Core/Src/lz4.c **** 
1975:Core/Src/lz4.c ****         const BYTE* match;
1976:Core/Src/lz4.c ****         size_t offset;
1977:Core/Src/lz4.c ****         unsigned token;
1978:Core/Src/lz4.c ****         size_t length;
1979:Core/Src/lz4.c **** 
1980:Core/Src/lz4.c **** 
1981:Core/Src/lz4.c ****         DEBUGLOG(5, "LZ4_decompress_generic (srcSize:%i, dstSize:%i)", srcSize, outputSize);
1982:Core/Src/lz4.c **** 
1983:Core/Src/lz4.c ****         /* Special cases */
1984:Core/Src/lz4.c ****         assert(lowPrefix <= op);
1985:Core/Src/lz4.c ****         if (unlikely(outputSize==0)) {
1986:Core/Src/lz4.c ****             /* Empty output buffer */
1987:Core/Src/lz4.c ****             if (partialDecoding) return 0;
1988:Core/Src/lz4.c ****             return ((srcSize==1) && (*ip==0)) ? 0 : -1;
1989:Core/Src/lz4.c ****         }
1990:Core/Src/lz4.c ****         if (unlikely(srcSize==0)) { return -1; }
1991:Core/Src/lz4.c **** 
1992:Core/Src/lz4.c ****     /* LZ4_FAST_DEC_LOOP:
1993:Core/Src/lz4.c ****      * designed for modern OoO performance cpus,
1994:Core/Src/lz4.c ****      * where copying reliably 32-bytes is preferable to an unpredictable branch.
1995:Core/Src/lz4.c ****      * note : fast loop may show a regression for some client arm chips. */
1996:Core/Src/lz4.c **** #if LZ4_FAST_DEC_LOOP
1997:Core/Src/lz4.c ****         if ((oend - op) < FASTLOOP_SAFE_DISTANCE) {
1998:Core/Src/lz4.c ****             DEBUGLOG(6, "skip fast decode loop");
1999:Core/Src/lz4.c ****             goto safe_decode;
2000:Core/Src/lz4.c ****         }
2001:Core/Src/lz4.c **** 
2002:Core/Src/lz4.c ****         /* Fast loop : decode sequences as long as output < oend-FASTLOOP_SAFE_DISTANCE */
2003:Core/Src/lz4.c ****         DEBUGLOG(6, "using fast decode loop");
2004:Core/Src/lz4.c ****         while (1) {
2005:Core/Src/lz4.c ****             /* Main fastloop assertion: We can always wildcopy FASTLOOP_SAFE_DISTANCE */
2006:Core/Src/lz4.c ****             assert(oend - op >= FASTLOOP_SAFE_DISTANCE);
2007:Core/Src/lz4.c ****             assert(ip < iend);
2008:Core/Src/lz4.c ****             token = *ip++;
2009:Core/Src/lz4.c ****             length = token >> ML_BITS;  /* literal length */
2010:Core/Src/lz4.c **** 
ARM GAS  /var/folders/b6/0xn3z77n589c481l0rsth7mc0000gn/T//ccW6wNUD.s 			page 47


2011:Core/Src/lz4.c ****             /* decode literal length */
2012:Core/Src/lz4.c ****             if (length == RUN_MASK) {
2013:Core/Src/lz4.c ****                 size_t const addl = read_variable_length(&ip, iend-RUN_MASK, 1);
2014:Core/Src/lz4.c ****                 if (addl == rvl_error) {
2015:Core/Src/lz4.c ****                     DEBUGLOG(6, "error reading long literal length");
2016:Core/Src/lz4.c ****                     goto _output_error;
2017:Core/Src/lz4.c ****                 }
2018:Core/Src/lz4.c ****                 length += addl;
2019:Core/Src/lz4.c ****                 if (unlikely((uptrval)(op)+length<(uptrval)(op))) { goto _output_error; } /* overfl
2020:Core/Src/lz4.c ****                 if (unlikely((uptrval)(ip)+length<(uptrval)(ip))) { goto _output_error; } /* overfl
2021:Core/Src/lz4.c **** 
2022:Core/Src/lz4.c ****                 /* copy literals */
2023:Core/Src/lz4.c ****                 cpy = op+length;
2024:Core/Src/lz4.c ****                 LZ4_STATIC_ASSERT(MFLIMIT >= WILDCOPYLENGTH);
2025:Core/Src/lz4.c ****                 if ((cpy>oend-32) || (ip+length>iend-32)) { goto safe_literal_copy; }
2026:Core/Src/lz4.c ****                 LZ4_wildCopy32(op, ip, cpy);
2027:Core/Src/lz4.c ****                 ip += length; op = cpy;
2028:Core/Src/lz4.c ****             } else {
2029:Core/Src/lz4.c ****                 cpy = op+length;
2030:Core/Src/lz4.c ****                 DEBUGLOG(7, "copy %u bytes in a 16-bytes stripe", (unsigned)length);
2031:Core/Src/lz4.c ****                 /* We don't need to check oend, since we check it once for each loop below */
2032:Core/Src/lz4.c ****                 if (ip > iend-(16 + 1/*max lit + offset + nextToken*/)) { goto safe_literal_copy; }
2033:Core/Src/lz4.c ****                 /* Literals can only be <= 14, but hope compilers optimize better when copy by a re
2034:Core/Src/lz4.c ****                 LZ4_memcpy(op, ip, 16);
2035:Core/Src/lz4.c ****                 ip += length; op = cpy;
2036:Core/Src/lz4.c ****             }
2037:Core/Src/lz4.c **** 
2038:Core/Src/lz4.c ****             /* get offset */
2039:Core/Src/lz4.c ****             offset = LZ4_readLE16(ip); ip+=2;
2040:Core/Src/lz4.c ****             DEBUGLOG(6, " offset = %zu", offset);
2041:Core/Src/lz4.c ****             match = op - offset;
2042:Core/Src/lz4.c ****             assert(match <= op);  /* overflow check */
2043:Core/Src/lz4.c **** 
2044:Core/Src/lz4.c ****             /* get matchlength */
2045:Core/Src/lz4.c ****             length = token & ML_MASK;
2046:Core/Src/lz4.c **** 
2047:Core/Src/lz4.c ****             if (length == ML_MASK) {
2048:Core/Src/lz4.c ****                 size_t const addl = read_variable_length(&ip, iend - LASTLITERALS + 1, 0);
2049:Core/Src/lz4.c ****                 if (addl == rvl_error) {
2050:Core/Src/lz4.c ****                     DEBUGLOG(6, "error reading long match length");
2051:Core/Src/lz4.c ****                     goto _output_error;
2052:Core/Src/lz4.c ****                 }
2053:Core/Src/lz4.c ****                 length += addl;
2054:Core/Src/lz4.c ****                 length += MINMATCH;
2055:Core/Src/lz4.c ****                 if (unlikely((uptrval)(op)+length<(uptrval)op)) { goto _output_error; } /* overflow
2056:Core/Src/lz4.c ****                 if ((checkOffset) && (unlikely(match + dictSize < lowPrefix))) {
2057:Core/Src/lz4.c ****                     DEBUGLOG(6, "Error : offset outside buffers");
2058:Core/Src/lz4.c ****                     goto _output_error;
2059:Core/Src/lz4.c ****                 }
2060:Core/Src/lz4.c ****                 if (op + length >= oend - FASTLOOP_SAFE_DISTANCE) {
2061:Core/Src/lz4.c ****                     goto safe_match_copy;
2062:Core/Src/lz4.c ****                 }
2063:Core/Src/lz4.c ****             } else {
2064:Core/Src/lz4.c ****                 length += MINMATCH;
2065:Core/Src/lz4.c ****                 if (op + length >= oend - FASTLOOP_SAFE_DISTANCE) {
2066:Core/Src/lz4.c ****                     goto safe_match_copy;
2067:Core/Src/lz4.c ****                 }
ARM GAS  /var/folders/b6/0xn3z77n589c481l0rsth7mc0000gn/T//ccW6wNUD.s 			page 48


2068:Core/Src/lz4.c **** 
2069:Core/Src/lz4.c ****                 /* Fastpath check: skip LZ4_wildCopy32 when true */
2070:Core/Src/lz4.c ****                 if ((dict == withPrefix64k) || (match >= lowPrefix)) {
2071:Core/Src/lz4.c ****                     if (offset >= 8) {
2072:Core/Src/lz4.c ****                         assert(match >= lowPrefix);
2073:Core/Src/lz4.c ****                         assert(match <= op);
2074:Core/Src/lz4.c ****                         assert(op + 18 <= oend);
2075:Core/Src/lz4.c **** 
2076:Core/Src/lz4.c ****                         LZ4_memcpy(op, match, 8);
2077:Core/Src/lz4.c ****                         LZ4_memcpy(op+8, match+8, 8);
2078:Core/Src/lz4.c ****                         LZ4_memcpy(op+16, match+16, 2);
2079:Core/Src/lz4.c ****                         op += length;
2080:Core/Src/lz4.c ****                         continue;
2081:Core/Src/lz4.c ****             }   }   }
2082:Core/Src/lz4.c **** 
2083:Core/Src/lz4.c ****             if ( checkOffset && (unlikely(match + dictSize < lowPrefix)) ) {
2084:Core/Src/lz4.c ****                 DEBUGLOG(6, "Error : pos=%zi, offset=%zi => outside buffers", op-lowPrefix, op-matc
2085:Core/Src/lz4.c ****                 goto _output_error;
2086:Core/Src/lz4.c ****             }
2087:Core/Src/lz4.c ****             /* match starting within external dictionary */
2088:Core/Src/lz4.c ****             if ((dict==usingExtDict) && (match < lowPrefix)) {
2089:Core/Src/lz4.c ****                 assert(dictEnd != NULL);
2090:Core/Src/lz4.c ****                 if (unlikely(op+length > oend-LASTLITERALS)) {
2091:Core/Src/lz4.c ****                     if (partialDecoding) {
2092:Core/Src/lz4.c ****                         DEBUGLOG(7, "partialDecoding: dictionary match, close to dstEnd");
2093:Core/Src/lz4.c ****                         length = MIN(length, (size_t)(oend-op));
2094:Core/Src/lz4.c ****                     } else {
2095:Core/Src/lz4.c ****                         DEBUGLOG(6, "end-of-block condition violated")
2096:Core/Src/lz4.c ****                         goto _output_error;
2097:Core/Src/lz4.c ****                 }   }
2098:Core/Src/lz4.c **** 
2099:Core/Src/lz4.c ****                 if (length <= (size_t)(lowPrefix-match)) {
2100:Core/Src/lz4.c ****                     /* match fits entirely within external dictionary : just copy */
2101:Core/Src/lz4.c ****                     LZ4_memmove(op, dictEnd - (lowPrefix-match), length);
2102:Core/Src/lz4.c ****                     op += length;
2103:Core/Src/lz4.c ****                 } else {
2104:Core/Src/lz4.c ****                     /* match stretches into both external dictionary and current block */
2105:Core/Src/lz4.c ****                     size_t const copySize = (size_t)(lowPrefix - match);
2106:Core/Src/lz4.c ****                     size_t const restSize = length - copySize;
2107:Core/Src/lz4.c ****                     LZ4_memcpy(op, dictEnd - copySize, copySize);
2108:Core/Src/lz4.c ****                     op += copySize;
2109:Core/Src/lz4.c ****                     if (restSize > (size_t)(op - lowPrefix)) {  /* overlap copy */
2110:Core/Src/lz4.c ****                         BYTE* const endOfMatch = op + restSize;
2111:Core/Src/lz4.c ****                         const BYTE* copyFrom = lowPrefix;
2112:Core/Src/lz4.c ****                         while (op < endOfMatch) { *op++ = *copyFrom++; }
2113:Core/Src/lz4.c ****                     } else {
2114:Core/Src/lz4.c ****                         LZ4_memcpy(op, lowPrefix, restSize);
2115:Core/Src/lz4.c ****                         op += restSize;
2116:Core/Src/lz4.c ****                 }   }
2117:Core/Src/lz4.c ****                 continue;
2118:Core/Src/lz4.c ****             }
2119:Core/Src/lz4.c **** 
2120:Core/Src/lz4.c ****             /* copy match within block */
2121:Core/Src/lz4.c ****             cpy = op + length;
2122:Core/Src/lz4.c **** 
2123:Core/Src/lz4.c ****             assert((op <= oend) && (oend-op >= 32));
2124:Core/Src/lz4.c ****             if (unlikely(offset<16)) {
ARM GAS  /var/folders/b6/0xn3z77n589c481l0rsth7mc0000gn/T//ccW6wNUD.s 			page 49


2125:Core/Src/lz4.c ****                 LZ4_memcpy_using_offset(op, match, cpy, offset);
2126:Core/Src/lz4.c ****             } else {
2127:Core/Src/lz4.c ****                 LZ4_wildCopy32(op, match, cpy);
2128:Core/Src/lz4.c ****             }
2129:Core/Src/lz4.c **** 
2130:Core/Src/lz4.c ****             op = cpy;   /* wildcopy correction */
2131:Core/Src/lz4.c ****         }
2132:Core/Src/lz4.c ****     safe_decode:
2133:Core/Src/lz4.c **** #endif
2134:Core/Src/lz4.c **** 
2135:Core/Src/lz4.c ****         /* Main Loop : decode remaining sequences where output < FASTLOOP_SAFE_DISTANCE */
2136:Core/Src/lz4.c ****         DEBUGLOG(6, "using safe decode loop");
2137:Core/Src/lz4.c ****         while (1) {
2138:Core/Src/lz4.c ****             assert(ip < iend);
2139:Core/Src/lz4.c ****             token = *ip++;
2140:Core/Src/lz4.c ****             length = token >> ML_BITS;  /* literal length */
2141:Core/Src/lz4.c **** 
2142:Core/Src/lz4.c ****             /* A two-stage shortcut for the most common case:
2143:Core/Src/lz4.c ****              * 1) If the literal length is 0..14, and there is enough space,
2144:Core/Src/lz4.c ****              * enter the shortcut and copy 16 bytes on behalf of the literals
2145:Core/Src/lz4.c ****              * (in the fast mode, only 8 bytes can be safely copied this way).
2146:Core/Src/lz4.c ****              * 2) Further if the match length is 4..18, copy 18 bytes in a similar
2147:Core/Src/lz4.c ****              * manner; but we ensure that there's enough space in the output for
2148:Core/Src/lz4.c ****              * those 18 bytes earlier, upon entering the shortcut (in other words,
2149:Core/Src/lz4.c ****              * there is a combined check for both stages).
2150:Core/Src/lz4.c ****              */
2151:Core/Src/lz4.c ****             if ( (length != RUN_MASK)
2152:Core/Src/lz4.c ****                 /* strictly "less than" on input, to re-enter the loop with at least one byte */
2153:Core/Src/lz4.c ****               && likely((ip < shortiend) & (op <= shortoend)) ) {
2154:Core/Src/lz4.c ****                 /* Copy the literals */
2155:Core/Src/lz4.c ****                 LZ4_memcpy(op, ip, 16);
2156:Core/Src/lz4.c ****                 op += length; ip += length;
2157:Core/Src/lz4.c **** 
2158:Core/Src/lz4.c ****                 /* The second stage: prepare for match copying, decode full info.
2159:Core/Src/lz4.c ****                  * If it doesn't work out, the info won't be wasted. */
2160:Core/Src/lz4.c ****                 length = token & ML_MASK; /* match length */
2161:Core/Src/lz4.c ****                 offset = LZ4_readLE16(ip); ip += 2;
2162:Core/Src/lz4.c ****                 match = op - offset;
2163:Core/Src/lz4.c ****                 assert(match <= op); /* check overflow */
2164:Core/Src/lz4.c **** 
2165:Core/Src/lz4.c ****                 /* Do not deal with overlapping matches. */
2166:Core/Src/lz4.c ****                 if ( (length != ML_MASK)
2167:Core/Src/lz4.c ****                   && (offset >= 8)
2168:Core/Src/lz4.c ****                   && (dict==withPrefix64k || match >= lowPrefix) ) {
2169:Core/Src/lz4.c ****                     /* Copy the match. */
2170:Core/Src/lz4.c ****                     LZ4_memcpy(op + 0, match + 0, 8);
2171:Core/Src/lz4.c ****                     LZ4_memcpy(op + 8, match + 8, 8);
2172:Core/Src/lz4.c ****                     LZ4_memcpy(op +16, match +16, 2);
2173:Core/Src/lz4.c ****                     op += length + MINMATCH;
2174:Core/Src/lz4.c ****                     /* Both stages worked, load the next token. */
2175:Core/Src/lz4.c ****                     continue;
2176:Core/Src/lz4.c ****                 }
2177:Core/Src/lz4.c **** 
2178:Core/Src/lz4.c ****                 /* The second stage didn't work out, but the info is ready.
2179:Core/Src/lz4.c ****                  * Propel it right to the point of match copying. */
2180:Core/Src/lz4.c ****                 goto _copy_match;
2181:Core/Src/lz4.c ****             }
ARM GAS  /var/folders/b6/0xn3z77n589c481l0rsth7mc0000gn/T//ccW6wNUD.s 			page 50


2182:Core/Src/lz4.c **** 
2183:Core/Src/lz4.c ****             /* decode literal length */
2184:Core/Src/lz4.c ****             if (length == RUN_MASK) {
2185:Core/Src/lz4.c ****                 size_t const addl = read_variable_length(&ip, iend-RUN_MASK, 1);
2186:Core/Src/lz4.c ****                 if (addl == rvl_error) { goto _output_error; }
2187:Core/Src/lz4.c ****                 length += addl;
2188:Core/Src/lz4.c ****                 if (unlikely((uptrval)(op)+length<(uptrval)(op))) { goto _output_error; } /* overfl
2189:Core/Src/lz4.c ****                 if (unlikely((uptrval)(ip)+length<(uptrval)(ip))) { goto _output_error; } /* overfl
2190:Core/Src/lz4.c ****             }
2191:Core/Src/lz4.c **** 
2192:Core/Src/lz4.c ****             /* copy literals */
2193:Core/Src/lz4.c ****             cpy = op+length;
2194:Core/Src/lz4.c **** #if LZ4_FAST_DEC_LOOP
2195:Core/Src/lz4.c ****         safe_literal_copy:
2196:Core/Src/lz4.c **** #endif
2197:Core/Src/lz4.c ****             LZ4_STATIC_ASSERT(MFLIMIT >= WILDCOPYLENGTH);
2198:Core/Src/lz4.c ****             if ((cpy>oend-MFLIMIT) || (ip+length>iend-(2+1+LASTLITERALS))) {
2199:Core/Src/lz4.c ****                 /* We've either hit the input parsing restriction or the output parsing restriction
2200:Core/Src/lz4.c ****                  * In the normal scenario, decoding a full block, it must be the last sequence,
2201:Core/Src/lz4.c ****                  * otherwise it's an error (invalid input or dimensions).
2202:Core/Src/lz4.c ****                  * In partialDecoding scenario, it's necessary to ensure there is no buffer overflo
2203:Core/Src/lz4.c ****                  */
2204:Core/Src/lz4.c ****                 if (partialDecoding) {
2205:Core/Src/lz4.c ****                     /* Since we are partial decoding we may be in this block because of the output 
2206:Core/Src/lz4.c ****                      * restriction, which is not valid since the output buffer is allowed to be und
2207:Core/Src/lz4.c ****                      */
2208:Core/Src/lz4.c ****                     DEBUGLOG(7, "partialDecoding: copying literals, close to input or output end")
2209:Core/Src/lz4.c ****                     DEBUGLOG(7, "partialDecoding: literal length = %u", (unsigned)length);
2210:Core/Src/lz4.c ****                     DEBUGLOG(7, "partialDecoding: remaining space in dstBuffer : %i", (int)(oend - 
2211:Core/Src/lz4.c ****                     DEBUGLOG(7, "partialDecoding: remaining space in srcBuffer : %i", (int)(iend - 
2212:Core/Src/lz4.c ****                     /* Finishing in the middle of a literals segment,
2213:Core/Src/lz4.c ****                      * due to lack of input.
2214:Core/Src/lz4.c ****                      */
2215:Core/Src/lz4.c ****                     if (ip+length > iend) {
2216:Core/Src/lz4.c ****                         length = (size_t)(iend-ip);
2217:Core/Src/lz4.c ****                         cpy = op + length;
2218:Core/Src/lz4.c ****                     }
2219:Core/Src/lz4.c ****                     /* Finishing in the middle of a literals segment,
2220:Core/Src/lz4.c ****                      * due to lack of output space.
2221:Core/Src/lz4.c ****                      */
2222:Core/Src/lz4.c ****                     if (cpy > oend) {
2223:Core/Src/lz4.c ****                         cpy = oend;
2224:Core/Src/lz4.c ****                         assert(op<=oend);
2225:Core/Src/lz4.c ****                         length = (size_t)(oend-op);
2226:Core/Src/lz4.c ****                     }
2227:Core/Src/lz4.c ****                 } else {
2228:Core/Src/lz4.c ****                      /* We must be on the last sequence (or invalid) because of the parsing limitat
2229:Core/Src/lz4.c ****                       * so check that we exactly consume the input and don't overrun the output buf
2230:Core/Src/lz4.c ****                       */
2231:Core/Src/lz4.c ****                     if ((ip+length != iend) || (cpy > oend)) {
2232:Core/Src/lz4.c ****                         DEBUGLOG(6, "should have been last run of literals")
2233:Core/Src/lz4.c ****                         DEBUGLOG(6, "ip(%p) + length(%i) = %p != iend (%p)", ip, (int)length, ip+le
2234:Core/Src/lz4.c ****                         DEBUGLOG(6, "or cpy(%p) > oend(%p)", cpy, oend);
2235:Core/Src/lz4.c ****                         goto _output_error;
2236:Core/Src/lz4.c ****                     }
2237:Core/Src/lz4.c ****                 }
2238:Core/Src/lz4.c ****                 LZ4_memmove(op, ip, length);  /* supports overlapping memory regions, for in-place 
ARM GAS  /var/folders/b6/0xn3z77n589c481l0rsth7mc0000gn/T//ccW6wNUD.s 			page 51


2239:Core/Src/lz4.c ****                 ip += length;
2240:Core/Src/lz4.c ****                 op += length;
2241:Core/Src/lz4.c ****                 /* Necessarily EOF when !partialDecoding.
2242:Core/Src/lz4.c ****                  * When partialDecoding, it is EOF if we've either
2243:Core/Src/lz4.c ****                  * filled the output buffer or
2244:Core/Src/lz4.c ****                  * can't proceed with reading an offset for following match.
2245:Core/Src/lz4.c ****                  */
2246:Core/Src/lz4.c ****                 if (!partialDecoding || (cpy == oend) || (ip >= (iend-2))) {
2247:Core/Src/lz4.c ****                     break;
2248:Core/Src/lz4.c ****                 }
2249:Core/Src/lz4.c ****             } else {
2250:Core/Src/lz4.c ****                 LZ4_wildCopy8(op, ip, cpy);   /* can overwrite up to 8 bytes beyond cpy */
2251:Core/Src/lz4.c ****                 ip += length; op = cpy;
2252:Core/Src/lz4.c ****             }
2253:Core/Src/lz4.c **** 
2254:Core/Src/lz4.c ****             /* get offset */
2255:Core/Src/lz4.c ****             offset = LZ4_readLE16(ip); ip+=2;
2256:Core/Src/lz4.c ****             match = op - offset;
2257:Core/Src/lz4.c **** 
2258:Core/Src/lz4.c ****             /* get matchlength */
2259:Core/Src/lz4.c ****             length = token & ML_MASK;
2260:Core/Src/lz4.c **** 
2261:Core/Src/lz4.c ****     _copy_match:
2262:Core/Src/lz4.c ****             if (length == ML_MASK) {
2263:Core/Src/lz4.c ****                 size_t const addl = read_variable_length(&ip, iend - LASTLITERALS + 1, 0);
2264:Core/Src/lz4.c ****                 if (addl == rvl_error) { goto _output_error; }
2265:Core/Src/lz4.c ****                 length += addl;
2266:Core/Src/lz4.c ****                 if (unlikely((uptrval)(op)+length<(uptrval)op)) goto _output_error;   /* overflow d
2267:Core/Src/lz4.c ****             }
2268:Core/Src/lz4.c ****             length += MINMATCH;
2269:Core/Src/lz4.c **** 
2270:Core/Src/lz4.c **** #if LZ4_FAST_DEC_LOOP
2271:Core/Src/lz4.c ****         safe_match_copy:
2272:Core/Src/lz4.c **** #endif
2273:Core/Src/lz4.c ****             if ((checkOffset) && (unlikely(match + dictSize < lowPrefix))) goto _output_error;   /*
2274:Core/Src/lz4.c ****             /* match starting within external dictionary */
2275:Core/Src/lz4.c ****             if ((dict==usingExtDict) && (match < lowPrefix)) {
2276:Core/Src/lz4.c ****                 assert(dictEnd != NULL);
2277:Core/Src/lz4.c ****                 if (unlikely(op+length > oend-LASTLITERALS)) {
2278:Core/Src/lz4.c ****                     if (partialDecoding) length = MIN(length, (size_t)(oend-op));
2279:Core/Src/lz4.c ****                     else goto _output_error;   /* doesn't respect parsing restriction */
2280:Core/Src/lz4.c ****                 }
2281:Core/Src/lz4.c **** 
2282:Core/Src/lz4.c ****                 if (length <= (size_t)(lowPrefix-match)) {
2283:Core/Src/lz4.c ****                     /* match fits entirely within external dictionary : just copy */
2284:Core/Src/lz4.c ****                     LZ4_memmove(op, dictEnd - (lowPrefix-match), length);
2285:Core/Src/lz4.c ****                     op += length;
2286:Core/Src/lz4.c ****                 } else {
2287:Core/Src/lz4.c ****                     /* match stretches into both external dictionary and current block */
2288:Core/Src/lz4.c ****                     size_t const copySize = (size_t)(lowPrefix - match);
2289:Core/Src/lz4.c ****                     size_t const restSize = length - copySize;
2290:Core/Src/lz4.c ****                     LZ4_memcpy(op, dictEnd - copySize, copySize);
2291:Core/Src/lz4.c ****                     op += copySize;
2292:Core/Src/lz4.c ****                     if (restSize > (size_t)(op - lowPrefix)) {  /* overlap copy */
2293:Core/Src/lz4.c ****                         BYTE* const endOfMatch = op + restSize;
2294:Core/Src/lz4.c ****                         const BYTE* copyFrom = lowPrefix;
2295:Core/Src/lz4.c ****                         while (op < endOfMatch) *op++ = *copyFrom++;
ARM GAS  /var/folders/b6/0xn3z77n589c481l0rsth7mc0000gn/T//ccW6wNUD.s 			page 52


2296:Core/Src/lz4.c ****                     } else {
2297:Core/Src/lz4.c ****                         LZ4_memcpy(op, lowPrefix, restSize);
2298:Core/Src/lz4.c ****                         op += restSize;
2299:Core/Src/lz4.c ****                 }   }
2300:Core/Src/lz4.c ****                 continue;
2301:Core/Src/lz4.c ****             }
2302:Core/Src/lz4.c ****             assert(match >= lowPrefix);
2303:Core/Src/lz4.c **** 
2304:Core/Src/lz4.c ****             /* copy match within block */
2305:Core/Src/lz4.c ****             cpy = op + length;
2306:Core/Src/lz4.c **** 
2307:Core/Src/lz4.c ****             /* partialDecoding : may end anywhere within the block */
2308:Core/Src/lz4.c ****             assert(op<=oend);
2309:Core/Src/lz4.c ****             if (partialDecoding && (cpy > oend-MATCH_SAFEGUARD_DISTANCE)) {
2310:Core/Src/lz4.c ****                 size_t const mlen = MIN(length, (size_t)(oend-op));
2311:Core/Src/lz4.c ****                 const BYTE* const matchEnd = match + mlen;
2312:Core/Src/lz4.c ****                 BYTE* const copyEnd = op + mlen;
2313:Core/Src/lz4.c ****                 if (matchEnd > op) {   /* overlap copy */
2314:Core/Src/lz4.c ****                     while (op < copyEnd) { *op++ = *match++; }
2315:Core/Src/lz4.c ****                 } else {
2316:Core/Src/lz4.c ****                     LZ4_memcpy(op, match, mlen);
2317:Core/Src/lz4.c ****                 }
2318:Core/Src/lz4.c ****                 op = copyEnd;
2319:Core/Src/lz4.c ****                 if (op == oend) { break; }
2320:Core/Src/lz4.c ****                 continue;
2321:Core/Src/lz4.c ****             }
2322:Core/Src/lz4.c **** 
2323:Core/Src/lz4.c ****             if (unlikely(offset<8)) {
2324:Core/Src/lz4.c ****                 LZ4_write32(op, 0);   /* silence msan warning when offset==0 */
2325:Core/Src/lz4.c ****                 op[0] = match[0];
2326:Core/Src/lz4.c ****                 op[1] = match[1];
2327:Core/Src/lz4.c ****                 op[2] = match[2];
2328:Core/Src/lz4.c ****                 op[3] = match[3];
2329:Core/Src/lz4.c ****                 match += inc32table[offset];
2330:Core/Src/lz4.c ****                 LZ4_memcpy(op+4, match, 4);
2331:Core/Src/lz4.c ****                 match -= dec64table[offset];
2332:Core/Src/lz4.c ****             } else {
2333:Core/Src/lz4.c ****                 LZ4_memcpy(op, match, 8);
2334:Core/Src/lz4.c ****                 match += 8;
2335:Core/Src/lz4.c ****             }
2336:Core/Src/lz4.c ****             op += 8;
2337:Core/Src/lz4.c **** 
2338:Core/Src/lz4.c ****             if (unlikely(cpy > oend-MATCH_SAFEGUARD_DISTANCE)) {
2339:Core/Src/lz4.c ****                 BYTE* const oCopyLimit = oend - (WILDCOPYLENGTH-1);
2340:Core/Src/lz4.c ****                 if (cpy > oend-LASTLITERALS) { goto _output_error; } /* Error : last LASTLITERALS b
2341:Core/Src/lz4.c ****                 if (op < oCopyLimit) {
2342:Core/Src/lz4.c ****                     LZ4_wildCopy8(op, match, oCopyLimit);
2343:Core/Src/lz4.c ****                     match += oCopyLimit - op;
2344:Core/Src/lz4.c ****                     op = oCopyLimit;
2345:Core/Src/lz4.c ****                 }
2346:Core/Src/lz4.c ****                 while (op < cpy) { *op++ = *match++; }
2347:Core/Src/lz4.c ****             } else {
2348:Core/Src/lz4.c ****                 LZ4_memcpy(op, match, 8);
2349:Core/Src/lz4.c ****                 if (length > 16)  { LZ4_wildCopy8(op+8, match+8, cpy); }
2350:Core/Src/lz4.c ****             }
2351:Core/Src/lz4.c ****             op = cpy;   /* wildcopy correction */
2352:Core/Src/lz4.c ****         }
ARM GAS  /var/folders/b6/0xn3z77n589c481l0rsth7mc0000gn/T//ccW6wNUD.s 			page 53


2353:Core/Src/lz4.c **** 
2354:Core/Src/lz4.c ****         /* end of decoding */
2355:Core/Src/lz4.c ****         DEBUGLOG(5, "decoded %i bytes", (int) (((char*)op)-dst));
2356:Core/Src/lz4.c ****         return (int) (((char*)op)-dst);     /* Nb of output bytes decoded */
2357:Core/Src/lz4.c **** 
2358:Core/Src/lz4.c ****         /* Overflow error detected */
2359:Core/Src/lz4.c ****     _output_error:
2360:Core/Src/lz4.c ****         return (int) (-(((const char*)ip)-src))-1;
2361:Core/Src/lz4.c ****     }
2362:Core/Src/lz4.c **** }
2363:Core/Src/lz4.c **** 
2364:Core/Src/lz4.c **** 
2365:Core/Src/lz4.c **** /*===== Instantiate the API decoding functions. =====*/
2366:Core/Src/lz4.c **** 
2367:Core/Src/lz4.c **** LZ4_FORCE_O2
2368:Core/Src/lz4.c **** int LZ4_decompress_safe(const char* source, char* dest, int compressedSize, int maxDecompressedSize
2369:Core/Src/lz4.c **** {
2370:Core/Src/lz4.c ****     return LZ4_decompress_generic(source, dest, compressedSize, maxDecompressedSize,
2371:Core/Src/lz4.c ****                                   decode_full_block, noDict,
2372:Core/Src/lz4.c ****                                   (BYTE*)dest, NULL, 0);
2373:Core/Src/lz4.c **** }
2374:Core/Src/lz4.c **** 
2375:Core/Src/lz4.c **** LZ4_FORCE_O2
2376:Core/Src/lz4.c **** int LZ4_decompress_safe_partial(const char* src, char* dst, int compressedSize, int targetOutputSiz
2377:Core/Src/lz4.c **** {
2378:Core/Src/lz4.c ****     dstCapacity = MIN(targetOutputSize, dstCapacity);
2379:Core/Src/lz4.c ****     return LZ4_decompress_generic(src, dst, compressedSize, dstCapacity,
2380:Core/Src/lz4.c ****                                   partial_decode,
2381:Core/Src/lz4.c ****                                   noDict, (BYTE*)dst, NULL, 0);
2382:Core/Src/lz4.c **** }
2383:Core/Src/lz4.c **** 
2384:Core/Src/lz4.c **** LZ4_FORCE_O2
2385:Core/Src/lz4.c **** int LZ4_decompress_fast(const char* source, char* dest, int originalSize)
2386:Core/Src/lz4.c **** {
2387:Core/Src/lz4.c ****     DEBUGLOG(5, "LZ4_decompress_fast");
2388:Core/Src/lz4.c ****     return LZ4_decompress_unsafe_generic(
2389:Core/Src/lz4.c ****                 (const BYTE*)source, (BYTE*)dest, originalSize,
2390:Core/Src/lz4.c ****                 0, NULL, 0);
2391:Core/Src/lz4.c **** }
2392:Core/Src/lz4.c **** 
2393:Core/Src/lz4.c **** /*===== Instantiate a few more decoding cases, used more than once. =====*/
2394:Core/Src/lz4.c **** 
2395:Core/Src/lz4.c **** LZ4_FORCE_O2 /* Exported, an obsolete API function. */
2396:Core/Src/lz4.c **** int LZ4_decompress_safe_withPrefix64k(const char* source, char* dest, int compressedSize, int maxOu
2397:Core/Src/lz4.c **** {
2398:Core/Src/lz4.c ****     return LZ4_decompress_generic(source, dest, compressedSize, maxOutputSize,
2399:Core/Src/lz4.c ****                                   decode_full_block, withPrefix64k,
2400:Core/Src/lz4.c ****                                   (BYTE*)dest - 64 KB, NULL, 0);
2401:Core/Src/lz4.c **** }
2402:Core/Src/lz4.c **** 
2403:Core/Src/lz4.c **** LZ4_FORCE_O2
2404:Core/Src/lz4.c **** static int LZ4_decompress_safe_partial_withPrefix64k(const char* source, char* dest, int compressed
2405:Core/Src/lz4.c **** {
 608              		.loc 1 2405 1 is_stmt 1 view -0
 609              		.cfi_startproc
 610              		@ args = 4, pretend = 0, frame = 24
 611              		@ frame_needed = 0, uses_anonymous_args = 0
ARM GAS  /var/folders/b6/0xn3z77n589c481l0rsth7mc0000gn/T//ccW6wNUD.s 			page 54


 612              		.loc 1 2405 1 is_stmt 0 view .LVU137
 613 0000 F0B5     		push	{r4, r5, r6, r7, lr}
 614              		.cfi_def_cfa_offset 20
 615              		.cfi_offset 4, -20
 616              		.cfi_offset 5, -16
 617              		.cfi_offset 6, -12
 618              		.cfi_offset 7, -8
 619              		.cfi_offset 14, -4
 620 0002 DE46     		mov	lr, fp
 621 0004 5746     		mov	r7, r10
 622 0006 4E46     		mov	r6, r9
 623 0008 4546     		mov	r5, r8
 624 000a E0B5     		push	{r5, r6, r7, lr}
 625              		.cfi_def_cfa_offset 36
 626              		.cfi_offset 8, -36
 627              		.cfi_offset 9, -32
 628              		.cfi_offset 10, -28
 629              		.cfi_offset 11, -24
 630 000c 87B0     		sub	sp, sp, #28
 631              		.cfi_def_cfa_offset 64
 632 000e 0590     		str	r0, [sp, #20]
 633 0010 0491     		str	r1, [sp, #16]
2406:Core/Src/lz4.c ****     dstCapacity = MIN(targetOutputSize, dstCapacity);
 634              		.loc 1 2406 5 is_stmt 1 view .LVU138
 635              		.loc 1 2406 17 is_stmt 0 view .LVU139
 636 0012 1099     		ldr	r1, [sp, #64]
 637              	.LVL42:
 638              		.loc 1 2406 17 view .LVU140
 639 0014 9942     		cmp	r1, r3
 640 0016 00DD     		ble	.L31
 641 0018 1900     		movs	r1, r3
 642              	.L31:
 643              	.LVL43:
2407:Core/Src/lz4.c ****     return LZ4_decompress_generic(source, dest, compressedSize, dstCapacity,
 644              		.loc 1 2407 5 is_stmt 1 view .LVU141
 645              		.loc 1 2407 12 is_stmt 0 view .LVU142
 646 001a 049E     		ldr	r6, [sp, #16]
 647 001c 3300     		movs	r3, r6
 648              	.LVL44:
 649              		.loc 1 2407 12 view .LVU143
 650 001e A948     		ldr	r0, .L82
 651              	.LVL45:
 652              		.loc 1 2407 12 view .LVU144
 653 0020 8446     		mov	ip, r0
 654 0022 6344     		add	r3, r3, ip
 655 0024 0293     		str	r3, [sp, #8]
 656              	.LVL46:
 657              	.LBB2995:
 658              	.LBI2995:
1944:Core/Src/lz4.c ****                  const char* const src,
 659              		.loc 1 1944 1 is_stmt 1 view .LVU145
 660              	.LBB2996:
1957:Core/Src/lz4.c **** 
 661              		.loc 1 1957 5 view .LVU146
1957:Core/Src/lz4.c **** 
 662              		.loc 1 1957 8 is_stmt 0 view .LVU147
 663 0026 059D     		ldr	r5, [sp, #20]
ARM GAS  /var/folders/b6/0xn3z77n589c481l0rsth7mc0000gn/T//ccW6wNUD.s 			page 55


 664 0028 002D     		cmp	r5, #0
 665 002a 00D1     		bne	.LCB529
 666 002c 3EE1     		b	.L61	@long jump
 667              	.LCB529:
1957:Core/Src/lz4.c **** 
 668              		.loc 1 1957 23 view .LVU148
 669 002e 0029     		cmp	r1, #0
 670 0030 00DA     		bge	.LCB531
 671 0032 3EE1     		b	.L62	@long jump
 672              	.LCB531:
 673              	.LBB2997:
1959:Core/Src/lz4.c ****         const BYTE* const iend = ip + srcSize;
 674              		.loc 1 1959 9 is_stmt 1 view .LVU149
 675              	.LVL47:
1960:Core/Src/lz4.c **** 
 676              		.loc 1 1960 9 view .LVU150
1960:Core/Src/lz4.c **** 
 677              		.loc 1 1960 27 is_stmt 0 view .LVU151
 678 0034 AB46     		mov	fp, r5
 679 0036 9344     		add	fp, fp, r2
 680              	.LVL48:
1962:Core/Src/lz4.c ****         BYTE* const oend = op + outputSize;
 681              		.loc 1 1962 9 is_stmt 1 view .LVU152
1963:Core/Src/lz4.c ****         BYTE* cpy;
 682              		.loc 1 1963 9 view .LVU153
1963:Core/Src/lz4.c ****         BYTE* cpy;
 683              		.loc 1 1963 21 is_stmt 0 view .LVU154
 684 0038 B046     		mov	r8, r6
 685 003a 8844     		add	r8, r8, r1
 686              	.LVL49:
1964:Core/Src/lz4.c **** 
 687              		.loc 1 1964 9 is_stmt 1 view .LVU155
1966:Core/Src/lz4.c **** 
 688              		.loc 1 1966 9 view .LVU156
1968:Core/Src/lz4.c **** 
 689              		.loc 1 1968 9 view .LVU157
1972:Core/Src/lz4.c ****         const BYTE* const shortoend = oend - 14 /*maxLL*/ - 18 /*maxML*/;
 690              		.loc 1 1972 9 view .LVU158
1972:Core/Src/lz4.c ****         const BYTE* const shortoend = oend - 14 /*maxLL*/ - 18 /*maxML*/;
 691              		.loc 1 1972 27 is_stmt 0 view .LVU159
 692 003c 1023     		movs	r3, #16
 693              	.LVL50:
1972:Core/Src/lz4.c ****         const BYTE* const shortoend = oend - 14 /*maxLL*/ - 18 /*maxML*/;
 694              		.loc 1 1972 27 view .LVU160
 695 003e 5B42     		rsbs	r3, r3, #0
 696 0040 5B44     		add	r3, r3, fp
 697 0042 0093     		str	r3, [sp]
 698              	.LVL51:
1973:Core/Src/lz4.c **** 
 699              		.loc 1 1973 9 is_stmt 1 view .LVU161
1973:Core/Src/lz4.c **** 
 700              		.loc 1 1973 27 is_stmt 0 view .LVU162
 701 0044 2023     		movs	r3, #32
 702              	.LVL52:
1973:Core/Src/lz4.c **** 
 703              		.loc 1 1973 27 view .LVU163
 704 0046 5B42     		rsbs	r3, r3, #0
ARM GAS  /var/folders/b6/0xn3z77n589c481l0rsth7mc0000gn/T//ccW6wNUD.s 			page 56


 705 0048 4344     		add	r3, r3, r8
 706 004a 0193     		str	r3, [sp, #4]
 707              	.LVL53:
1975:Core/Src/lz4.c ****         size_t offset;
 708              		.loc 1 1975 9 is_stmt 1 view .LVU164
1976:Core/Src/lz4.c ****         unsigned token;
 709              		.loc 1 1976 9 view .LVU165
1977:Core/Src/lz4.c ****         size_t length;
 710              		.loc 1 1977 9 view .LVU166
1978:Core/Src/lz4.c **** 
 711              		.loc 1 1978 9 view .LVU167
1981:Core/Src/lz4.c **** 
 712              		.loc 1 1981 9 view .LVU168
1981:Core/Src/lz4.c **** 
 713              		.loc 1 1981 92 view .LVU169
1984:Core/Src/lz4.c ****         if (unlikely(outputSize==0)) {
 714              		.loc 1 1984 9 view .LVU170
1985:Core/Src/lz4.c ****             /* Empty output buffer */
 715              		.loc 1 1985 9 view .LVU171
1985:Core/Src/lz4.c ****             /* Empty output buffer */
 716              		.loc 1 1985 12 is_stmt 0 view .LVU172
 717 004c 0029     		cmp	r1, #0
 718 004e 00D1     		bne	.LCB575
 719 0050 32E1     		b	.L63	@long jump
 720              	.LCB575:
1990:Core/Src/lz4.c **** 
 721              		.loc 1 1990 9 is_stmt 1 view .LVU173
1990:Core/Src/lz4.c **** 
 722              		.loc 1 1990 12 is_stmt 0 view .LVU174
 723 0052 002A     		cmp	r2, #0
 724 0054 00D1     		bne	.LCB580
 725 0056 31E1     		b	.L64	@long jump
 726              	.LCB580:
 727              	.LVL54:
 728              	.L33:
2136:Core/Src/lz4.c ****         while (1) {
 729              		.loc 1 2136 9 is_stmt 1 view .LVU175
2136:Core/Src/lz4.c ****         while (1) {
 730              		.loc 1 2136 46 view .LVU176
2137:Core/Src/lz4.c ****             assert(ip < iend);
 731              		.loc 1 2137 9 view .LVU177
2138:Core/Src/lz4.c ****             token = *ip++;
 732              		.loc 1 2138 13 view .LVU178
2139:Core/Src/lz4.c ****             length = token >> ML_BITS;  /* literal length */
 733              		.loc 1 2139 13 view .LVU179
2139:Core/Src/lz4.c ****             length = token >> ML_BITS;  /* literal length */
 734              		.loc 1 2139 24 is_stmt 0 view .LVU180
 735 0058 6C1C     		adds	r4, r5, #1
 736              	.LVL55:
2139:Core/Src/lz4.c ****             length = token >> ML_BITS;  /* literal length */
 737              		.loc 1 2139 21 view .LVU181
 738 005a 2B78     		ldrb	r3, [r5]
 739 005c 9946     		mov	r9, r3
 740              	.LVL56:
2140:Core/Src/lz4.c **** 
 741              		.loc 1 2140 13 is_stmt 1 view .LVU182
2140:Core/Src/lz4.c **** 
ARM GAS  /var/folders/b6/0xn3z77n589c481l0rsth7mc0000gn/T//ccW6wNUD.s 			page 57


 742              		.loc 1 2140 20 is_stmt 0 view .LVU183
 743 005e 1D09     		lsrs	r5, r3, #4
 744              	.LVL57:
2151:Core/Src/lz4.c ****                 /* strictly "less than" on input, to re-enter the loop with at least one byte */
 745              		.loc 1 2151 13 is_stmt 1 view .LVU184
2151:Core/Src/lz4.c ****                 /* strictly "less than" on input, to re-enter the loop with at least one byte */
 746              		.loc 1 2151 16 is_stmt 0 view .LVU185
 747 0060 0F2D     		cmp	r5, #15
 748 0062 33D0     		beq	.L34
2153:Core/Src/lz4.c ****                 /* Copy the literals */
 749              		.loc 1 2153 18 view .LVU186
 750 0064 009B     		ldr	r3, [sp]
 751              	.LVL58:
2153:Core/Src/lz4.c ****                 /* Copy the literals */
 752              		.loc 1 2153 18 view .LVU187
 753 0066 9C42     		cmp	r4, r3
 754 0068 9241     		sbcs	r2, r2, r2
 755 006a 5242     		rsbs	r2, r2, #0
 756 006c 0023     		movs	r3, #0
 757 006e 0199     		ldr	r1, [sp, #4]
 758 0070 B142     		cmp	r1, r6
 759 0072 5B41     		adcs	r3, r3, r3
2153:Core/Src/lz4.c ****                 /* Copy the literals */
 760              		.loc 1 2153 15 view .LVU188
 761 0074 1342     		tst	r3, r2
 762 0076 29D0     		beq	.L34
2155:Core/Src/lz4.c ****                 op += length; ip += length;
 763              		.loc 1 2155 17 is_stmt 1 view .LVU189
 764 0078 1022     		movs	r2, #16
 765 007a 2100     		movs	r1, r4
 766 007c 3000     		movs	r0, r6
 767 007e FFF7FEFF 		bl	memcpy
 768              	.LVL59:
2156:Core/Src/lz4.c **** 
 769              		.loc 1 2156 17 view .LVU190
2156:Core/Src/lz4.c **** 
 770              		.loc 1 2156 20 is_stmt 0 view .LVU191
 771 0082 7719     		adds	r7, r6, r5
 772              	.LVL60:
2156:Core/Src/lz4.c **** 
 773              		.loc 1 2156 31 is_stmt 1 view .LVU192
2156:Core/Src/lz4.c **** 
 774              		.loc 1 2156 34 is_stmt 0 view .LVU193
 775 0084 6519     		adds	r5, r4, r5
 776              	.LVL61:
2160:Core/Src/lz4.c ****                 offset = LZ4_readLE16(ip); ip += 2;
 777              		.loc 1 2160 17 is_stmt 1 view .LVU194
2160:Core/Src/lz4.c ****                 offset = LZ4_readLE16(ip); ip += 2;
 778              		.loc 1 2160 24 is_stmt 0 view .LVU195
 779 0086 0F26     		movs	r6, #15
 780 0088 4B46     		mov	r3, r9
 781 008a 1E40     		ands	r6, r3
 782              	.LVL62:
2161:Core/Src/lz4.c ****                 match = op - offset;
 783              		.loc 1 2161 17 is_stmt 1 view .LVU196
2161:Core/Src/lz4.c ****                 match = op - offset;
 784              		.loc 1 2161 26 is_stmt 0 view .LVU197
ARM GAS  /var/folders/b6/0xn3z77n589c481l0rsth7mc0000gn/T//ccW6wNUD.s 			page 58


 785 008c 2800     		movs	r0, r5
 786 008e FFF7FEFF 		bl	LZ4_readLE16
 787              	.LVL63:
2161:Core/Src/lz4.c ****                 match = op - offset;
 788              		.loc 1 2161 24 view .LVU198
 789 0092 8246     		mov	r10, r0
 790              	.LVL64:
2161:Core/Src/lz4.c ****                 match = op - offset;
 791              		.loc 1 2161 44 is_stmt 1 view .LVU199
2161:Core/Src/lz4.c ****                 match = op - offset;
 792              		.loc 1 2161 47 is_stmt 0 view .LVU200
 793 0094 0235     		adds	r5, r5, #2
 794              	.LVL65:
2162:Core/Src/lz4.c ****                 assert(match <= op); /* check overflow */
 795              		.loc 1 2162 17 is_stmt 1 view .LVU201
2162:Core/Src/lz4.c ****                 assert(match <= op); /* check overflow */
 796              		.loc 1 2162 23 is_stmt 0 view .LVU202
 797 0096 3C1A     		subs	r4, r7, r0
 798              	.LVL66:
2163:Core/Src/lz4.c **** 
 799              		.loc 1 2163 17 is_stmt 1 view .LVU203
2166:Core/Src/lz4.c ****                   && (offset >= 8)
 800              		.loc 1 2166 17 view .LVU204
2166:Core/Src/lz4.c ****                   && (offset >= 8)
 801              		.loc 1 2166 20 is_stmt 0 view .LVU205
 802 0098 0F2E     		cmp	r6, #15
 803 009a 4BD0     		beq	.L35
2167:Core/Src/lz4.c ****                   && (dict==withPrefix64k || match >= lowPrefix) ) {
 804              		.loc 1 2167 19 view .LVU206
 805 009c 0728     		cmp	r0, #7
 806 009e 49D9     		bls	.L35
2170:Core/Src/lz4.c ****                     LZ4_memcpy(op + 8, match + 8, 8);
 807              		.loc 1 2170 21 is_stmt 1 view .LVU207
 808 00a0 0822     		movs	r2, #8
 809 00a2 2100     		movs	r1, r4
 810 00a4 3800     		movs	r0, r7
 811              	.LVL67:
2170:Core/Src/lz4.c ****                     LZ4_memcpy(op + 8, match + 8, 8);
 812              		.loc 1 2170 21 is_stmt 0 view .LVU208
 813 00a6 FFF7FEFF 		bl	memcpy
 814              	.LVL68:
2171:Core/Src/lz4.c ****                     LZ4_memcpy(op +16, match +16, 2);
 815              		.loc 1 2171 21 is_stmt 1 view .LVU209
 816 00aa 3800     		movs	r0, r7
 817 00ac 0830     		adds	r0, r0, #8
 818 00ae 2100     		movs	r1, r4
 819 00b0 0831     		adds	r1, r1, #8
 820 00b2 0822     		movs	r2, #8
 821 00b4 FFF7FEFF 		bl	memcpy
 822              	.LVL69:
2172:Core/Src/lz4.c ****                     op += length + MINMATCH;
 823              		.loc 1 2172 21 view .LVU210
 824 00b8 3800     		movs	r0, r7
 825 00ba 1030     		adds	r0, r0, #16
 826 00bc 2100     		movs	r1, r4
 827 00be 1031     		adds	r1, r1, #16
 828 00c0 0222     		movs	r2, #2
ARM GAS  /var/folders/b6/0xn3z77n589c481l0rsth7mc0000gn/T//ccW6wNUD.s 			page 59


 829 00c2 FFF7FEFF 		bl	memcpy
 830              	.LVL70:
2173:Core/Src/lz4.c ****                     /* Both stages worked, load the next token. */
 831              		.loc 1 2173 21 view .LVU211
2173:Core/Src/lz4.c ****                     /* Both stages worked, load the next token. */
 832              		.loc 1 2173 24 is_stmt 0 view .LVU212
 833 00c6 0436     		adds	r6, r6, #4
 834              	.LVL71:
2173:Core/Src/lz4.c ****                     /* Both stages worked, load the next token. */
 835              		.loc 1 2173 24 view .LVU213
 836 00c8 BE19     		adds	r6, r7, r6
 837              	.LVL72:
2175:Core/Src/lz4.c ****                 }
 838              		.loc 1 2175 21 is_stmt 1 view .LVU214
 839 00ca C5E7     		b	.L33
 840              	.LVL73:
 841              	.L34:
2184:Core/Src/lz4.c ****                 size_t const addl = read_variable_length(&ip, iend-RUN_MASK, 1);
 842              		.loc 1 2184 13 view .LVU215
2184:Core/Src/lz4.c ****                 size_t const addl = read_variable_length(&ip, iend-RUN_MASK, 1);
 843              		.loc 1 2184 16 is_stmt 0 view .LVU216
 844 00cc 0F2D     		cmp	r5, #15
 845 00ce 58D0     		beq	.L78
 846              	.L37:
2193:Core/Src/lz4.c **** #if LZ4_FAST_DEC_LOOP
 847              		.loc 1 2193 13 is_stmt 1 view .LVU217
2193:Core/Src/lz4.c **** #if LZ4_FAST_DEC_LOOP
 848              		.loc 1 2193 17 is_stmt 0 view .LVU218
 849 00d0 7319     		adds	r3, r6, r5
 850 00d2 9A46     		mov	r10, r3
 851              	.LVL74:
 852              	.LBB2998:
2197:Core/Src/lz4.c ****             if ((cpy>oend-MFLIMIT) || (ip+length>iend-(2+1+LASTLITERALS))) {
 853              		.loc 1 2197 13 is_stmt 1 view .LVU219
 854              	.LBE2998:
2197:Core/Src/lz4.c ****             if ((cpy>oend-MFLIMIT) || (ip+length>iend-(2+1+LASTLITERALS))) {
 855              		.loc 1 2197 57 view .LVU220
2198:Core/Src/lz4.c ****                 /* We've either hit the input parsing restriction or the output parsing restriction
 856              		.loc 1 2198 13 view .LVU221
2198:Core/Src/lz4.c ****                 /* We've either hit the input parsing restriction or the output parsing restriction
 857              		.loc 1 2198 26 is_stmt 0 view .LVU222
 858 00d4 4346     		mov	r3, r8
 859              	.LVL75:
2198:Core/Src/lz4.c ****                 /* We've either hit the input parsing restriction or the output parsing restriction
 860              		.loc 1 2198 26 view .LVU223
 861 00d6 0C3B     		subs	r3, r3, #12
2198:Core/Src/lz4.c ****                 /* We've either hit the input parsing restriction or the output parsing restriction
 862              		.loc 1 2198 16 view .LVU224
 863 00d8 9A45     		cmp	r10, r3
 864 00da 05D8     		bhi	.L43
2198:Core/Src/lz4.c ****                 /* We've either hit the input parsing restriction or the output parsing restriction
 865              		.loc 1 2198 42 view .LVU225
 866 00dc 6219     		adds	r2, r4, r5
 867 00de 0392     		str	r2, [sp, #12]
2198:Core/Src/lz4.c ****                 /* We've either hit the input parsing restriction or the output parsing restriction
 868              		.loc 1 2198 54 view .LVU226
 869 00e0 5B46     		mov	r3, fp
ARM GAS  /var/folders/b6/0xn3z77n589c481l0rsth7mc0000gn/T//ccW6wNUD.s 			page 60


 870 00e2 083B     		subs	r3, r3, #8
2198:Core/Src/lz4.c ****                 /* We've either hit the input parsing restriction or the output parsing restriction
 871              		.loc 1 2198 36 view .LVU227
 872 00e4 9A42     		cmp	r2, r3
 873 00e6 6ED9     		bls	.L74
 874              	.L43:
2204:Core/Src/lz4.c ****                     /* Since we are partial decoding we may be in this block because of the output 
 875              		.loc 1 2204 17 is_stmt 1 view .LVU228
2208:Core/Src/lz4.c ****                     DEBUGLOG(7, "partialDecoding: literal length = %u", (unsigned)length);
 876              		.loc 1 2208 21 view .LVU229
2209:Core/Src/lz4.c ****                     DEBUGLOG(7, "partialDecoding: remaining space in dstBuffer : %i", (int)(oend - 
 877              		.loc 1 2209 21 view .LVU230
2209:Core/Src/lz4.c ****                     DEBUGLOG(7, "partialDecoding: remaining space in dstBuffer : %i", (int)(oend - 
 878              		.loc 1 2209 90 view .LVU231
2210:Core/Src/lz4.c ****                     DEBUGLOG(7, "partialDecoding: remaining space in srcBuffer : %i", (int)(iend - 
 879              		.loc 1 2210 21 view .LVU232
2210:Core/Src/lz4.c ****                     DEBUGLOG(7, "partialDecoding: remaining space in srcBuffer : %i", (int)(iend - 
 880              		.loc 1 2210 104 view .LVU233
2211:Core/Src/lz4.c ****                     /* Finishing in the middle of a literals segment,
 881              		.loc 1 2211 21 view .LVU234
2211:Core/Src/lz4.c ****                     /* Finishing in the middle of a literals segment,
 882              		.loc 1 2211 104 view .LVU235
2215:Core/Src/lz4.c ****                         length = (size_t)(iend-ip);
 883              		.loc 1 2215 21 view .LVU236
2215:Core/Src/lz4.c ****                         length = (size_t)(iend-ip);
 884              		.loc 1 2215 27 is_stmt 0 view .LVU237
 885 00e8 6319     		adds	r3, r4, r5
2215:Core/Src/lz4.c ****                         length = (size_t)(iend-ip);
 886              		.loc 1 2215 24 view .LVU238
 887 00ea 9B45     		cmp	fp, r3
 888 00ec 03D2     		bcs	.L45
2216:Core/Src/lz4.c ****                         cpy = op + length;
 889              		.loc 1 2216 25 is_stmt 1 view .LVU239
2216:Core/Src/lz4.c ****                         cpy = op + length;
 890              		.loc 1 2216 47 is_stmt 0 view .LVU240
 891 00ee 5B46     		mov	r3, fp
 892 00f0 1D1B     		subs	r5, r3, r4
 893              	.LVL76:
2217:Core/Src/lz4.c ****                     }
 894              		.loc 1 2217 25 is_stmt 1 view .LVU241
2217:Core/Src/lz4.c ****                     }
 895              		.loc 1 2217 29 is_stmt 0 view .LVU242
 896 00f2 7319     		adds	r3, r6, r5
 897 00f4 9A46     		mov	r10, r3
 898              	.LVL77:
 899              	.L45:
2222:Core/Src/lz4.c ****                         cpy = oend;
 900              		.loc 1 2222 21 is_stmt 1 view .LVU243
2222:Core/Src/lz4.c ****                         cpy = oend;
 901              		.loc 1 2222 24 is_stmt 0 view .LVU244
 902 00f6 D045     		cmp	r8, r10
 903 00f8 02D2     		bcs	.L46
2223:Core/Src/lz4.c ****                         assert(op<=oend);
 904              		.loc 1 2223 25 is_stmt 1 view .LVU245
 905              	.LVL78:
2224:Core/Src/lz4.c ****                         length = (size_t)(oend-op);
 906              		.loc 1 2224 25 view .LVU246
ARM GAS  /var/folders/b6/0xn3z77n589c481l0rsth7mc0000gn/T//ccW6wNUD.s 			page 61


2225:Core/Src/lz4.c ****                     }
 907              		.loc 1 2225 25 view .LVU247
2225:Core/Src/lz4.c ****                     }
 908              		.loc 1 2225 47 is_stmt 0 view .LVU248
 909 00fa 4346     		mov	r3, r8
 910 00fc 9D1B     		subs	r5, r3, r6
 911              	.LVL79:
2223:Core/Src/lz4.c ****                         assert(op<=oend);
 912              		.loc 1 2223 29 view .LVU249
 913 00fe C246     		mov	r10, r8
 914              	.LVL80:
 915              	.L46:
2238:Core/Src/lz4.c ****                 ip += length;
 916              		.loc 1 2238 17 is_stmt 1 view .LVU250
 917 0100 2A00     		movs	r2, r5
 918 0102 2100     		movs	r1, r4
 919 0104 3000     		movs	r0, r6
 920 0106 FFF7FEFF 		bl	memmove
 921              	.LVL81:
2239:Core/Src/lz4.c ****                 op += length;
 922              		.loc 1 2239 17 view .LVU251
2239:Core/Src/lz4.c ****                 op += length;
 923              		.loc 1 2239 20 is_stmt 0 view .LVU252
 924 010a 6219     		adds	r2, r4, r5
 925 010c 0392     		str	r2, [sp, #12]
 926              	.LVL82:
2240:Core/Src/lz4.c ****                 /* Necessarily EOF when !partialDecoding.
 927              		.loc 1 2240 17 is_stmt 1 view .LVU253
2240:Core/Src/lz4.c ****                 /* Necessarily EOF when !partialDecoding.
 928              		.loc 1 2240 20 is_stmt 0 view .LVU254
 929 010e 7719     		adds	r7, r6, r5
 930              	.LVL83:
2246:Core/Src/lz4.c ****                     break;
 931              		.loc 1 2246 17 is_stmt 1 view .LVU255
2246:Core/Src/lz4.c ****                     break;
 932              		.loc 1 2246 38 is_stmt 0 view .LVU256
 933 0110 D045     		cmp	r8, r10
 934 0112 00D1     		bne	.LCB791
 935 0114 C4E0     		b	.L69	@long jump
 936              	.LCB791:
2246:Core/Src/lz4.c ****                     break;
 937              		.loc 1 2246 70 view .LVU257
 938 0116 5B46     		mov	r3, fp
 939 0118 023B     		subs	r3, r3, #2
2246:Core/Src/lz4.c ****                     break;
 940              		.loc 1 2246 55 view .LVU258
 941 011a 9A42     		cmp	r2, r3
 942 011c 00D3     		bcc	.LCB797
 943 011e C1E0     		b	.L79	@long jump
 944              	.LCB797:
 945              	.LVL84:
 946              	.L48:
2255:Core/Src/lz4.c ****             match = op - offset;
 947              		.loc 1 2255 13 is_stmt 1 view .LVU259
2255:Core/Src/lz4.c ****             match = op - offset;
 948              		.loc 1 2255 22 is_stmt 0 view .LVU260
 949 0120 039D     		ldr	r5, [sp, #12]
ARM GAS  /var/folders/b6/0xn3z77n589c481l0rsth7mc0000gn/T//ccW6wNUD.s 			page 62


 950 0122 2800     		movs	r0, r5
 951 0124 FFF7FEFF 		bl	LZ4_readLE16
 952              	.LVL85:
2255:Core/Src/lz4.c ****             match = op - offset;
 953              		.loc 1 2255 20 view .LVU261
 954 0128 8246     		mov	r10, r0
 955              	.LVL86:
2255:Core/Src/lz4.c ****             match = op - offset;
 956              		.loc 1 2255 40 is_stmt 1 view .LVU262
2255:Core/Src/lz4.c ****             match = op - offset;
 957              		.loc 1 2255 42 is_stmt 0 view .LVU263
 958 012a 0235     		adds	r5, r5, #2
 959              	.LVL87:
2256:Core/Src/lz4.c **** 
 960              		.loc 1 2256 13 is_stmt 1 view .LVU264
2256:Core/Src/lz4.c **** 
 961              		.loc 1 2256 19 is_stmt 0 view .LVU265
 962 012c 3C1A     		subs	r4, r7, r0
 963              	.LVL88:
2259:Core/Src/lz4.c **** 
 964              		.loc 1 2259 13 is_stmt 1 view .LVU266
2259:Core/Src/lz4.c **** 
 965              		.loc 1 2259 20 is_stmt 0 view .LVU267
 966 012e 0F26     		movs	r6, #15
 967 0130 4B46     		mov	r3, r9
 968 0132 1E40     		ands	r6, r3
 969              	.LVL89:
 970              	.L35:
2262:Core/Src/lz4.c ****                 size_t const addl = read_variable_length(&ip, iend - LASTLITERALS + 1, 0);
 971              		.loc 1 2262 13 is_stmt 1 view .LVU268
2262:Core/Src/lz4.c ****                 size_t const addl = read_variable_length(&ip, iend - LASTLITERALS + 1, 0);
 972              		.loc 1 2262 16 is_stmt 0 view .LVU269
 973 0134 0F2E     		cmp	r6, #15
 974 0136 52D0     		beq	.L80
 975              	.L49:
2268:Core/Src/lz4.c **** 
 976              		.loc 1 2268 13 is_stmt 1 view .LVU270
2268:Core/Src/lz4.c **** 
 977              		.loc 1 2268 20 is_stmt 0 view .LVU271
 978 0138 331D     		adds	r3, r6, #4
 979 013a 9946     		mov	r9, r3
 980              	.LVL90:
2273:Core/Src/lz4.c ****             /* match starting within external dictionary */
 981              		.loc 1 2273 13 is_stmt 1 view .LVU272
2273:Core/Src/lz4.c ****             /* match starting within external dictionary */
 982              		.loc 1 2273 31 is_stmt 0 view .LVU273
 983 013c 029B     		ldr	r3, [sp, #8]
 984              	.LVL91:
2273:Core/Src/lz4.c ****             /* match starting within external dictionary */
 985              		.loc 1 2273 31 view .LVU274
 986 013e 9C42     		cmp	r4, r3
 987 0140 62D3     		bcc	.L42
2275:Core/Src/lz4.c ****                 assert(dictEnd != NULL);
 988              		.loc 1 2275 13 is_stmt 1 view .LVU275
2302:Core/Src/lz4.c **** 
 989              		.loc 1 2302 13 view .LVU276
2305:Core/Src/lz4.c **** 
ARM GAS  /var/folders/b6/0xn3z77n589c481l0rsth7mc0000gn/T//ccW6wNUD.s 			page 63


 990              		.loc 1 2305 13 view .LVU277
2305:Core/Src/lz4.c **** 
 991              		.loc 1 2305 17 is_stmt 0 view .LVU278
 992 0142 4B46     		mov	r3, r9
 993 0144 FE18     		adds	r6, r7, r3
 994              	.LVL92:
2308:Core/Src/lz4.c ****             if (partialDecoding && (cpy > oend-MATCH_SAFEGUARD_DISTANCE)) {
 995              		.loc 1 2308 13 is_stmt 1 view .LVU279
2309:Core/Src/lz4.c ****                 size_t const mlen = MIN(length, (size_t)(oend-op));
 996              		.loc 1 2309 13 view .LVU280
2309:Core/Src/lz4.c ****                 size_t const mlen = MIN(length, (size_t)(oend-op));
 997              		.loc 1 2309 47 is_stmt 0 view .LVU281
 998 0146 4346     		mov	r3, r8
 999 0148 0C3B     		subs	r3, r3, #12
2309:Core/Src/lz4.c ****                 size_t const mlen = MIN(length, (size_t)(oend-op));
 1000              		.loc 1 2309 33 view .LVU282
 1001 014a 9E42     		cmp	r6, r3
 1002 014c 6AD9     		bls	.L52
 1003              	.LBB2999:
2310:Core/Src/lz4.c ****                 const BYTE* const matchEnd = match + mlen;
 1004              		.loc 1 2310 17 is_stmt 1 view .LVU283
2310:Core/Src/lz4.c ****                 const BYTE* const matchEnd = match + mlen;
 1005              		.loc 1 2310 37 is_stmt 0 view .LVU284
 1006 014e 4346     		mov	r3, r8
 1007 0150 DB1B     		subs	r3, r3, r7
2310:Core/Src/lz4.c ****                 const BYTE* const matchEnd = match + mlen;
 1008              		.loc 1 2310 30 view .LVU285
 1009 0152 4A46     		mov	r2, r9
 1010 0154 9A42     		cmp	r2, r3
 1011 0156 00D9     		bls	.L53
 1012 0158 1A00     		movs	r2, r3
 1013              	.L53:
 1014              	.LVL93:
2311:Core/Src/lz4.c ****                 BYTE* const copyEnd = op + mlen;
 1015              		.loc 1 2311 17 is_stmt 1 view .LVU286
2311:Core/Src/lz4.c ****                 BYTE* const copyEnd = op + mlen;
 1016              		.loc 1 2311 35 is_stmt 0 view .LVU287
 1017 015a A318     		adds	r3, r4, r2
2312:Core/Src/lz4.c ****                 if (matchEnd > op) {   /* overlap copy */
 1018              		.loc 1 2312 17 is_stmt 1 view .LVU288
2312:Core/Src/lz4.c ****                 if (matchEnd > op) {   /* overlap copy */
 1019              		.loc 1 2312 29 is_stmt 0 view .LVU289
 1020 015c BE18     		adds	r6, r7, r2
 1021              	.LVL94:
2313:Core/Src/lz4.c ****                     while (op < copyEnd) { *op++ = *match++; }
 1022              		.loc 1 2313 17 is_stmt 1 view .LVU290
2313:Core/Src/lz4.c ****                     while (op < copyEnd) { *op++ = *match++; }
 1023              		.loc 1 2313 20 is_stmt 0 view .LVU291
 1024 015e 9F42     		cmp	r7, r3
 1025 0160 5DD3     		bcc	.L54
2316:Core/Src/lz4.c ****                 }
 1026              		.loc 1 2316 21 is_stmt 1 view .LVU292
 1027 0162 2100     		movs	r1, r4
 1028 0164 3800     		movs	r0, r7
 1029              	.LVL95:
2316:Core/Src/lz4.c ****                 }
 1030              		.loc 1 2316 21 is_stmt 0 view .LVU293
ARM GAS  /var/folders/b6/0xn3z77n589c481l0rsth7mc0000gn/T//ccW6wNUD.s 			page 64


 1031 0166 FFF7FEFF 		bl	memcpy
 1032              	.LVL96:
 1033              	.L57:
2318:Core/Src/lz4.c ****                 if (op == oend) { break; }
 1034              		.loc 1 2318 17 is_stmt 1 view .LVU294
2319:Core/Src/lz4.c ****                 continue;
 1035              		.loc 1 2319 17 view .LVU295
2319:Core/Src/lz4.c ****                 continue;
 1036              		.loc 1 2319 20 is_stmt 0 view .LVU296
 1037 016a B045     		cmp	r8, r6
 1038 016c 00D0     		beq	.LCB912
 1039 016e 73E7     		b	.L33	@long jump
 1040              	.LCB912:
 1041              	.LVL97:
 1042              	.L47:
2319:Core/Src/lz4.c ****                 continue;
 1043              		.loc 1 2319 20 view .LVU297
 1044              	.LBE2999:
2355:Core/Src/lz4.c ****         return (int) (((char*)op)-dst);     /* Nb of output bytes decoded */
 1045              		.loc 1 2355 9 is_stmt 1 view .LVU298
2355:Core/Src/lz4.c ****         return (int) (((char*)op)-dst);     /* Nb of output bytes decoded */
 1046              		.loc 1 2355 65 view .LVU299
2356:Core/Src/lz4.c **** 
 1047              		.loc 1 2356 9 view .LVU300
2356:Core/Src/lz4.c **** 
 1048              		.loc 1 2356 16 is_stmt 0 view .LVU301
 1049 0170 049B     		ldr	r3, [sp, #16]
 1050 0172 F01A     		subs	r0, r6, r3
 1051              	.LVL98:
 1052              	.L30:
2356:Core/Src/lz4.c **** 
 1053              		.loc 1 2356 16 view .LVU302
 1054              	.LBE2997:
 1055              	.LBE2996:
 1056              	.LBE2995:
2408:Core/Src/lz4.c ****                                   partial_decode, withPrefix64k,
2409:Core/Src/lz4.c ****                                   (BYTE*)dest - 64 KB, NULL, 0);
2410:Core/Src/lz4.c **** }
 1057              		.loc 1 2410 1 view .LVU303
 1058 0174 07B0     		add	sp, sp, #28
 1059              		@ sp needed
 1060 0176 F0BC     		pop	{r4, r5, r6, r7}
 1061 0178 BB46     		mov	fp, r7
 1062 017a B246     		mov	r10, r6
 1063 017c A946     		mov	r9, r5
 1064 017e A046     		mov	r8, r4
 1065 0180 F0BD     		pop	{r4, r5, r6, r7, pc}
 1066              	.LVL99:
 1067              	.L78:
 1068              	.LBB3022:
 1069              	.LBB3021:
 1070              	.LBB3019:
 1071              	.LBB3000:
2185:Core/Src/lz4.c ****                 if (addl == rvl_error) { goto _output_error; }
 1072              		.loc 1 2185 17 is_stmt 1 view .LVU304
2185:Core/Src/lz4.c ****                 if (addl == rvl_error) { goto _output_error; }
 1073              		.loc 1 2185 37 is_stmt 0 view .LVU305
ARM GAS  /var/folders/b6/0xn3z77n589c481l0rsth7mc0000gn/T//ccW6wNUD.s 			page 65


 1074 0182 5946     		mov	r1, fp
 1075 0184 0F39     		subs	r1, r1, #15
 1076              	.LVL100:
 1077              	.LBB3001:
 1078              	.LBI3001:
1911:Core/Src/lz4.c ****                      int initial_check)
 1079              		.loc 1 1911 1 is_stmt 1 view .LVU306
 1080              	.LBB3002:
1914:Core/Src/lz4.c ****     assert(ip != NULL);
 1081              		.loc 1 1914 5 view .LVU307
1915:Core/Src/lz4.c ****     assert(*ip !=  NULL);
 1082              		.loc 1 1915 5 view .LVU308
1916:Core/Src/lz4.c ****     assert(ilimit != NULL);
 1083              		.loc 1 1916 5 view .LVU309
1917:Core/Src/lz4.c ****     if (initial_check && unlikely((*ip) >= ilimit)) {    /* read limit reached */
 1084              		.loc 1 1917 5 view .LVU310
1918:Core/Src/lz4.c ****         return rvl_error;
 1085              		.loc 1 1918 5 view .LVU311
1918:Core/Src/lz4.c ****         return rvl_error;
 1086              		.loc 1 1918 23 is_stmt 0 view .LVU312
 1087 0186 8C42     		cmp	r4, r1
 1088 0188 1BD2     		bcs	.L38
 1089 018a 0023     		movs	r3, #0
 1090              	.LVL101:
 1091              	.L40:
1921:Core/Src/lz4.c ****         s = **ip;
 1092              		.loc 1 1921 5 is_stmt 1 view .LVU313
1922:Core/Src/lz4.c ****         (*ip)++;
 1093              		.loc 1 1922 9 view .LVU314
1922:Core/Src/lz4.c ****         (*ip)++;
 1094              		.loc 1 1922 13 is_stmt 0 view .LVU315
 1095 018c 2278     		ldrb	r2, [r4]
 1096              	.LVL102:
1923:Core/Src/lz4.c ****         length += s;
 1097              		.loc 1 1923 9 is_stmt 1 view .LVU316
1923:Core/Src/lz4.c ****         length += s;
 1098              		.loc 1 1923 14 is_stmt 0 view .LVU317
 1099 018e 0134     		adds	r4, r4, #1
 1100              	.LVL103:
1924:Core/Src/lz4.c ****         if (unlikely((*ip) > ilimit)) {    /* read limit reached */
 1101              		.loc 1 1924 9 is_stmt 1 view .LVU318
1924:Core/Src/lz4.c ****         if (unlikely((*ip) > ilimit)) {    /* read limit reached */
 1102              		.loc 1 1924 16 is_stmt 0 view .LVU319
 1103 0190 9B18     		adds	r3, r3, r2
 1104              	.LVL104:
1925:Core/Src/lz4.c ****             return rvl_error;
 1105              		.loc 1 1925 9 is_stmt 1 view .LVU320
1925:Core/Src/lz4.c ****             return rvl_error;
 1106              		.loc 1 1925 12 is_stmt 0 view .LVU321
 1107 0192 A142     		cmp	r1, r4
 1108 0194 04D3     		bcc	.L65
1929:Core/Src/lz4.c ****             return rvl_error;
 1109              		.loc 1 1929 9 is_stmt 1 view .LVU322
1929:Core/Src/lz4.c ****             return rvl_error;
 1110              		.loc 1 1929 12 is_stmt 0 view .LVU323
 1111 0196 002B     		cmp	r3, #0
 1112 0198 10DB     		blt	.L66
ARM GAS  /var/folders/b6/0xn3z77n589c481l0rsth7mc0000gn/T//ccW6wNUD.s 			page 66


1932:Core/Src/lz4.c **** 
 1113              		.loc 1 1932 13 is_stmt 1 view .LVU324
1932:Core/Src/lz4.c **** 
 1114              		.loc 1 1932 5 is_stmt 0 view .LVU325
 1115 019a FF2A     		cmp	r2, #255
 1116 019c F6D0     		beq	.L40
 1117 019e 01E0     		b	.L39
 1118              	.L65:
1926:Core/Src/lz4.c ****         }
 1119              		.loc 1 1926 20 view .LVU326
 1120 01a0 0123     		movs	r3, #1
 1121              	.LVL105:
1926:Core/Src/lz4.c ****         }
 1122              		.loc 1 1926 20 view .LVU327
 1123 01a2 5B42     		rsbs	r3, r3, #0
 1124              	.L39:
 1125              	.LVL106:
1926:Core/Src/lz4.c ****         }
 1126              		.loc 1 1926 20 view .LVU328
 1127              	.LBE3002:
 1128              	.LBE3001:
2186:Core/Src/lz4.c ****                 length += addl;
 1129              		.loc 1 2186 17 is_stmt 1 view .LVU329
2186:Core/Src/lz4.c ****                 length += addl;
 1130              		.loc 1 2186 20 is_stmt 0 view .LVU330
 1131 01a4 5A1C     		adds	r2, r3, #1
 1132 01a6 0CD0     		beq	.L38
2187:Core/Src/lz4.c ****                 if (unlikely((uptrval)(op)+length<(uptrval)(op))) { goto _output_error; } /* overfl
 1133              		.loc 1 2187 17 is_stmt 1 view .LVU331
2187:Core/Src/lz4.c ****                 if (unlikely((uptrval)(op)+length<(uptrval)(op))) { goto _output_error; } /* overfl
 1134              		.loc 1 2187 24 is_stmt 0 view .LVU332
 1135 01a8 ED18     		adds	r5, r5, r3
 1136              	.LVL107:
2188:Core/Src/lz4.c ****                 if (unlikely((uptrval)(ip)+length<(uptrval)(ip))) { goto _output_error; } /* overfl
 1137              		.loc 1 2188 17 is_stmt 1 view .LVU333
2188:Core/Src/lz4.c ****                 if (unlikely((uptrval)(ip)+length<(uptrval)(ip))) { goto _output_error; } /* overfl
 1138              		.loc 1 2188 21 is_stmt 0 view .LVU334
 1139 01aa AB19     		adds	r3, r5, r6
 1140              	.LVL108:
2188:Core/Src/lz4.c ****                 if (unlikely((uptrval)(ip)+length<(uptrval)(ip))) { goto _output_error; } /* overfl
 1141              		.loc 1 2188 20 view .LVU335
 1142 01ac 9E42     		cmp	r6, r3
 1143 01ae 7BD8     		bhi	.L67
2189:Core/Src/lz4.c ****             }
 1144              		.loc 1 2189 17 is_stmt 1 view .LVU336
2189:Core/Src/lz4.c ****             }
 1145              		.loc 1 2189 21 is_stmt 0 view .LVU337
 1146 01b0 2B19     		adds	r3, r5, r4
2189:Core/Src/lz4.c ****             }
 1147              		.loc 1 2189 20 view .LVU338
 1148 01b2 9C42     		cmp	r4, r3
 1149 01b4 00D8     		bhi	.LCB1080
 1150 01b6 8BE7     		b	.L37	@long jump
 1151              	.LCB1080:
 1152 01b8 2500     		movs	r5, r4
 1153              	.LVL109:
2189:Core/Src/lz4.c ****             }
ARM GAS  /var/folders/b6/0xn3z77n589c481l0rsth7mc0000gn/T//ccW6wNUD.s 			page 67


 1154              		.loc 1 2189 20 view .LVU339
 1155 01ba 25E0     		b	.L42
 1156              	.LVL110:
 1157              	.L66:
 1158              	.LBB3004:
 1159              	.LBB3003:
1930:Core/Src/lz4.c ****         }
 1160              		.loc 1 1930 20 view .LVU340
 1161 01bc 0123     		movs	r3, #1
 1162              	.LVL111:
1930:Core/Src/lz4.c ****         }
 1163              		.loc 1 1930 20 view .LVU341
 1164 01be 5B42     		rsbs	r3, r3, #0
 1165 01c0 F0E7     		b	.L39
 1166              	.LVL112:
 1167              	.L38:
1930:Core/Src/lz4.c ****         }
 1168              		.loc 1 1930 20 view .LVU342
 1169              	.LBE3003:
 1170              	.LBE3004:
2186:Core/Src/lz4.c ****                 length += addl;
 1171              		.loc 1 2186 42 is_stmt 1 view .LVU343
 1172 01c2 2500     		movs	r5, r4
 1173              	.LVL113:
2186:Core/Src/lz4.c ****                 length += addl;
 1174              		.loc 1 2186 42 is_stmt 0 view .LVU344
 1175 01c4 20E0     		b	.L42
 1176              	.LVL114:
 1177              	.L74:
2186:Core/Src/lz4.c ****                 length += addl;
 1178              		.loc 1 2186 42 view .LVU345
 1179 01c6 5546     		mov	r5, r10
 1180              	.LVL115:
 1181              	.L44:
2186:Core/Src/lz4.c ****                 length += addl;
 1182              		.loc 1 2186 42 view .LVU346
 1183              	.LBE3000:
 1184              	.LBB3005:
 1185              	.LBB3006:
 452:Core/Src/lz4.c **** }
 1186              		.loc 1 452 5 is_stmt 1 view .LVU347
 452:Core/Src/lz4.c **** }
 1187              		.loc 1 452 10 view .LVU348
 1188 01c8 0822     		movs	r2, #8
 1189 01ca 2100     		movs	r1, r4
 1190 01cc 3000     		movs	r0, r6
 1191 01ce FFF7FEFF 		bl	memcpy
 1192              	.LVL116:
 452:Core/Src/lz4.c **** }
 1193              		.loc 1 452 29 view .LVU349
 452:Core/Src/lz4.c **** }
 1194              		.loc 1 452 30 is_stmt 0 view .LVU350
 1195 01d2 0836     		adds	r6, r6, #8
 1196              	.LVL117:
 452:Core/Src/lz4.c **** }
 1197              		.loc 1 452 35 is_stmt 1 view .LVU351
 452:Core/Src/lz4.c **** }
ARM GAS  /var/folders/b6/0xn3z77n589c481l0rsth7mc0000gn/T//ccW6wNUD.s 			page 68


 1198              		.loc 1 452 36 is_stmt 0 view .LVU352
 1199 01d4 0834     		adds	r4, r4, #8
 1200              	.LVL118:
 452:Core/Src/lz4.c **** }
 1201              		.loc 1 452 49 is_stmt 1 view .LVU353
 452:Core/Src/lz4.c **** }
 1202              		.loc 1 452 5 is_stmt 0 view .LVU354
 1203 01d6 B542     		cmp	r5, r6
 1204 01d8 F6D8     		bhi	.L44
 1205              	.LBE3006:
 1206              	.LBE3005:
2251:Core/Src/lz4.c ****             }
 1207              		.loc 1 2251 34 view .LVU355
 1208 01da 2F00     		movs	r7, r5
 1209 01dc A0E7     		b	.L48
 1210              	.LVL119:
 1211              	.L80:
 1212              	.LBB3007:
2263:Core/Src/lz4.c ****                 if (addl == rvl_error) { goto _output_error; }
 1213              		.loc 1 2263 17 is_stmt 1 view .LVU356
2263:Core/Src/lz4.c ****                 if (addl == rvl_error) { goto _output_error; }
 1214              		.loc 1 2263 37 is_stmt 0 view .LVU357
 1215 01de 5B46     		mov	r3, fp
 1216 01e0 191F     		subs	r1, r3, #4
 1217              	.LVL120:
 1218              	.LBB3008:
 1219              	.LBI3008:
1911:Core/Src/lz4.c ****                      int initial_check)
 1220              		.loc 1 1911 1 is_stmt 1 view .LVU358
 1221              	.LBB3009:
1914:Core/Src/lz4.c ****     assert(ip != NULL);
 1222              		.loc 1 1914 5 view .LVU359
1915:Core/Src/lz4.c ****     assert(*ip !=  NULL);
 1223              		.loc 1 1915 5 view .LVU360
1916:Core/Src/lz4.c ****     assert(ilimit != NULL);
 1224              		.loc 1 1916 5 view .LVU361
1917:Core/Src/lz4.c ****     if (initial_check && unlikely((*ip) >= ilimit)) {    /* read limit reached */
 1225              		.loc 1 1917 5 view .LVU362
1918:Core/Src/lz4.c ****         return rvl_error;
 1226              		.loc 1 1918 5 view .LVU363
 1227              	.LBE3009:
 1228              	.LBE3008:
2263:Core/Src/lz4.c ****                 if (addl == rvl_error) { goto _output_error; }
 1229              		.loc 1 2263 37 is_stmt 0 view .LVU364
 1230 01e2 0023     		movs	r3, #0
 1231              	.LVL121:
 1232              	.L51:
 1233              	.LBB3012:
 1234              	.LBB3010:
1921:Core/Src/lz4.c ****         s = **ip;
 1235              		.loc 1 1921 5 is_stmt 1 view .LVU365
1922:Core/Src/lz4.c ****         (*ip)++;
 1236              		.loc 1 1922 9 view .LVU366
1922:Core/Src/lz4.c ****         (*ip)++;
 1237              		.loc 1 1922 13 is_stmt 0 view .LVU367
 1238 01e4 2A78     		ldrb	r2, [r5]
 1239              	.LVL122:
ARM GAS  /var/folders/b6/0xn3z77n589c481l0rsth7mc0000gn/T//ccW6wNUD.s 			page 69


1923:Core/Src/lz4.c ****         length += s;
 1240              		.loc 1 1923 9 is_stmt 1 view .LVU368
1923:Core/Src/lz4.c ****         length += s;
 1241              		.loc 1 1923 14 is_stmt 0 view .LVU369
 1242 01e6 0135     		adds	r5, r5, #1
 1243              	.LVL123:
1924:Core/Src/lz4.c ****         if (unlikely((*ip) > ilimit)) {    /* read limit reached */
 1244              		.loc 1 1924 9 is_stmt 1 view .LVU370
1924:Core/Src/lz4.c ****         if (unlikely((*ip) > ilimit)) {    /* read limit reached */
 1245              		.loc 1 1924 16 is_stmt 0 view .LVU371
 1246 01e8 9B18     		adds	r3, r3, r2
 1247              	.LVL124:
1925:Core/Src/lz4.c ****             return rvl_error;
 1248              		.loc 1 1925 9 is_stmt 1 view .LVU372
1925:Core/Src/lz4.c ****             return rvl_error;
 1249              		.loc 1 1925 12 is_stmt 0 view .LVU373
 1250 01ea A942     		cmp	r1, r5
 1251 01ec 04D3     		bcc	.L71
1929:Core/Src/lz4.c ****             return rvl_error;
 1252              		.loc 1 1929 9 is_stmt 1 view .LVU374
1929:Core/Src/lz4.c ****             return rvl_error;
 1253              		.loc 1 1929 12 is_stmt 0 view .LVU375
 1254 01ee 002B     		cmp	r3, #0
 1255 01f0 0EDB     		blt	.L72
1932:Core/Src/lz4.c **** 
 1256              		.loc 1 1932 13 is_stmt 1 view .LVU376
1932:Core/Src/lz4.c **** 
 1257              		.loc 1 1932 5 is_stmt 0 view .LVU377
 1258 01f2 FF2A     		cmp	r2, #255
 1259 01f4 F6D0     		beq	.L51
 1260 01f6 01E0     		b	.L50
 1261              	.L71:
1926:Core/Src/lz4.c ****         }
 1262              		.loc 1 1926 20 view .LVU378
 1263 01f8 0123     		movs	r3, #1
 1264              	.LVL125:
1926:Core/Src/lz4.c ****         }
 1265              		.loc 1 1926 20 view .LVU379
 1266 01fa 5B42     		rsbs	r3, r3, #0
 1267              	.L50:
 1268              	.LVL126:
1926:Core/Src/lz4.c ****         }
 1269              		.loc 1 1926 20 view .LVU380
 1270              	.LBE3010:
 1271              	.LBE3012:
2264:Core/Src/lz4.c ****                 length += addl;
 1272              		.loc 1 2264 17 is_stmt 1 view .LVU381
2264:Core/Src/lz4.c ****                 length += addl;
 1273              		.loc 1 2264 20 is_stmt 0 view .LVU382
 1274 01fc 5A1C     		adds	r2, r3, #1
 1275 01fe 03D0     		beq	.L42
2265:Core/Src/lz4.c ****                 if (unlikely((uptrval)(op)+length<(uptrval)op)) goto _output_error;   /* overflow d
 1276              		.loc 1 2265 17 is_stmt 1 view .LVU383
2265:Core/Src/lz4.c ****                 if (unlikely((uptrval)(op)+length<(uptrval)op)) goto _output_error;   /* overflow d
 1277              		.loc 1 2265 24 is_stmt 0 view .LVU384
 1278 0200 F618     		adds	r6, r6, r3
 1279              	.LVL127:
ARM GAS  /var/folders/b6/0xn3z77n589c481l0rsth7mc0000gn/T//ccW6wNUD.s 			page 70


2266:Core/Src/lz4.c ****             }
 1280              		.loc 1 2266 17 is_stmt 1 view .LVU385
2266:Core/Src/lz4.c ****             }
 1281              		.loc 1 2266 21 is_stmt 0 view .LVU386
 1282 0202 F319     		adds	r3, r6, r7
 1283              	.LVL128:
2266:Core/Src/lz4.c ****             }
 1284              		.loc 1 2266 20 view .LVU387
 1285 0204 9F42     		cmp	r7, r3
 1286 0206 97D9     		bls	.L49
 1287              	.LVL129:
 1288              	.L42:
2266:Core/Src/lz4.c ****             }
 1289              		.loc 1 2266 20 view .LVU388
 1290              	.LBE3007:
2360:Core/Src/lz4.c ****     }
 1291              		.loc 1 2360 9 is_stmt 1 view .LVU389
2360:Core/Src/lz4.c ****     }
 1292              		.loc 1 2360 16 is_stmt 0 view .LVU390
 1293 0208 059B     		ldr	r3, [sp, #20]
 1294 020a 581B     		subs	r0, r3, r5
2360:Core/Src/lz4.c ****     }
 1295              		.loc 1 2360 48 view .LVU391
 1296 020c 0138     		subs	r0, r0, #1
 1297 020e B1E7     		b	.L30
 1298              	.LVL130:
 1299              	.L72:
 1300              	.LBB3014:
 1301              	.LBB3013:
 1302              	.LBB3011:
1930:Core/Src/lz4.c ****         }
 1303              		.loc 1 1930 20 view .LVU392
 1304 0210 0123     		movs	r3, #1
 1305              	.LVL131:
1930:Core/Src/lz4.c ****         }
 1306              		.loc 1 1930 20 view .LVU393
 1307 0212 5B42     		rsbs	r3, r3, #0
 1308 0214 F2E7     		b	.L50
 1309              	.LVL132:
 1310              	.L56:
1930:Core/Src/lz4.c ****         }
 1311              		.loc 1 1930 20 view .LVU394
 1312              	.LBE3011:
 1313              	.LBE3013:
 1314              	.LBE3014:
 1315              	.LBB3015:
2314:Core/Src/lz4.c ****                 } else {
 1316              		.loc 1 2314 44 is_stmt 1 view .LVU395
2314:Core/Src/lz4.c ****                 } else {
 1317              		.loc 1 2314 52 is_stmt 0 view .LVU396
 1318 0216 2378     		ldrb	r3, [r4]
2314:Core/Src/lz4.c ****                 } else {
 1319              		.loc 1 2314 50 view .LVU397
 1320 0218 3B70     		strb	r3, [r7]
2314:Core/Src/lz4.c ****                 } else {
 1321              		.loc 1 2314 58 view .LVU398
 1322 021a 0134     		adds	r4, r4, #1
ARM GAS  /var/folders/b6/0xn3z77n589c481l0rsth7mc0000gn/T//ccW6wNUD.s 			page 71


 1323              	.LVL133:
2314:Core/Src/lz4.c ****                 } else {
 1324              		.loc 1 2314 47 view .LVU399
 1325 021c 0137     		adds	r7, r7, #1
 1326              	.LVL134:
 1327              	.L54:
2314:Core/Src/lz4.c ****                 } else {
 1328              		.loc 1 2314 27 is_stmt 1 view .LVU400
 1329 021e BE42     		cmp	r6, r7
 1330 0220 F9D8     		bhi	.L56
2314:Core/Src/lz4.c ****                 } else {
 1331              		.loc 1 2314 27 is_stmt 0 view .LVU401
 1332 0222 A2E7     		b	.L57
 1333              	.LVL135:
 1334              	.L52:
2314:Core/Src/lz4.c ****                 } else {
 1335              		.loc 1 2314 27 view .LVU402
 1336              	.LBE3015:
2323:Core/Src/lz4.c ****                 LZ4_write32(op, 0);   /* silence msan warning when offset==0 */
 1337              		.loc 1 2323 13 is_stmt 1 view .LVU403
2323:Core/Src/lz4.c ****                 LZ4_write32(op, 0);   /* silence msan warning when offset==0 */
 1338              		.loc 1 2323 16 is_stmt 0 view .LVU404
 1339 0224 5346     		mov	r3, r10
 1340 0226 072B     		cmp	r3, #7
 1341 0228 1BD9     		bls	.L81
2333:Core/Src/lz4.c ****                 match += 8;
 1342              		.loc 1 2333 17 is_stmt 1 view .LVU405
 1343 022a 0822     		movs	r2, #8
 1344 022c 2100     		movs	r1, r4
 1345 022e 3800     		movs	r0, r7
 1346              	.LVL136:
2333:Core/Src/lz4.c ****                 match += 8;
 1347              		.loc 1 2333 17 is_stmt 0 view .LVU406
 1348 0230 FFF7FEFF 		bl	memcpy
 1349              	.LVL137:
2334:Core/Src/lz4.c ****             }
 1350              		.loc 1 2334 17 is_stmt 1 view .LVU407
2334:Core/Src/lz4.c ****             }
 1351              		.loc 1 2334 23 is_stmt 0 view .LVU408
 1352 0234 0834     		adds	r4, r4, #8
 1353              	.LVL138:
 1354              	.L59:
2336:Core/Src/lz4.c **** 
 1355              		.loc 1 2336 13 is_stmt 1 view .LVU409
2336:Core/Src/lz4.c **** 
 1356              		.loc 1 2336 16 is_stmt 0 view .LVU410
 1357 0236 3800     		movs	r0, r7
 1358 0238 0830     		adds	r0, r0, #8
 1359              	.LVL139:
2338:Core/Src/lz4.c ****                 BYTE* const oCopyLimit = oend - (WILDCOPYLENGTH-1);
 1360              		.loc 1 2338 13 is_stmt 1 view .LVU411
2348:Core/Src/lz4.c ****                 if (length > 16)  { LZ4_wildCopy8(op+8, match+8, cpy); }
 1361              		.loc 1 2348 17 view .LVU412
 1362 023a 0822     		movs	r2, #8
 1363 023c 2100     		movs	r1, r4
 1364 023e FFF7FEFF 		bl	memcpy
 1365              	.LVL140:
ARM GAS  /var/folders/b6/0xn3z77n589c481l0rsth7mc0000gn/T//ccW6wNUD.s 			page 72


2349:Core/Src/lz4.c ****             }
 1366              		.loc 1 2349 17 view .LVU413
2349:Core/Src/lz4.c ****             }
 1367              		.loc 1 2349 20 is_stmt 0 view .LVU414
 1368 0242 4B46     		mov	r3, r9
 1369 0244 102B     		cmp	r3, #16
 1370 0246 00D8     		bhi	.LCB1385
 1371 0248 06E7     		b	.L33	@long jump
 1372              	.LCB1385:
 1373              	.LVL141:
2349:Core/Src/lz4.c ****             }
 1374              		.loc 1 2349 37 is_stmt 1 view .LVU415
2349:Core/Src/lz4.c ****             }
 1375              		.loc 1 2349 53 is_stmt 0 view .LVU416
 1376 024a 1037     		adds	r7, r7, #16
2349:Core/Src/lz4.c ****             }
 1377              		.loc 1 2349 62 view .LVU417
 1378 024c 0834     		adds	r4, r4, #8
 1379              	.LVL142:
 1380              	.LBB3016:
 1381              	.LBI3016:
 446:Core/Src/lz4.c **** {
 1382              		.loc 1 446 6 is_stmt 1 view .LVU418
 1383              	.LBB3017:
 448:Core/Src/lz4.c ****     const BYTE* s = (const BYTE*)srcPtr;
 1384              		.loc 1 448 5 view .LVU419
 449:Core/Src/lz4.c ****     BYTE* const e = (BYTE*)dstEnd;
 1385              		.loc 1 449 5 view .LVU420
 450:Core/Src/lz4.c **** 
 1386              		.loc 1 450 5 view .LVU421
 1387              	.L60:
 452:Core/Src/lz4.c **** }
 1388              		.loc 1 452 5 view .LVU422
 452:Core/Src/lz4.c **** }
 1389              		.loc 1 452 10 view .LVU423
 1390 024e 0822     		movs	r2, #8
 1391 0250 2100     		movs	r1, r4
 1392 0252 3800     		movs	r0, r7
 1393 0254 FFF7FEFF 		bl	memcpy
 1394              	.LVL143:
 452:Core/Src/lz4.c **** }
 1395              		.loc 1 452 29 view .LVU424
 452:Core/Src/lz4.c **** }
 1396              		.loc 1 452 30 is_stmt 0 view .LVU425
 1397 0258 0837     		adds	r7, r7, #8
 1398              	.LVL144:
 452:Core/Src/lz4.c **** }
 1399              		.loc 1 452 35 is_stmt 1 view .LVU426
 452:Core/Src/lz4.c **** }
 1400              		.loc 1 452 36 is_stmt 0 view .LVU427
 1401 025a 0834     		adds	r4, r4, #8
 1402              	.LVL145:
 452:Core/Src/lz4.c **** }
 1403              		.loc 1 452 49 is_stmt 1 view .LVU428
 452:Core/Src/lz4.c **** }
 1404              		.loc 1 452 5 is_stmt 0 view .LVU429
 1405 025c BE42     		cmp	r6, r7
ARM GAS  /var/folders/b6/0xn3z77n589c481l0rsth7mc0000gn/T//ccW6wNUD.s 			page 73


 1406 025e F6D8     		bhi	.L60
 1407 0260 FAE6     		b	.L33
 1408              	.LVL146:
 1409              	.L81:
 452:Core/Src/lz4.c **** }
 1410              		.loc 1 452 5 view .LVU430
 1411              	.LBE3017:
 1412              	.LBE3016:
2324:Core/Src/lz4.c ****                 op[0] = match[0];
 1413              		.loc 1 2324 17 is_stmt 1 view .LVU431
 1414 0262 0021     		movs	r1, #0
 1415 0264 3800     		movs	r0, r7
 1416              	.LVL147:
2324:Core/Src/lz4.c ****                 op[0] = match[0];
 1417              		.loc 1 2324 17 is_stmt 0 view .LVU432
 1418 0266 FFF7FEFF 		bl	LZ4_write32
 1419              	.LVL148:
2325:Core/Src/lz4.c ****                 op[1] = match[1];
 1420              		.loc 1 2325 17 is_stmt 1 view .LVU433
2325:Core/Src/lz4.c ****                 op[1] = match[1];
 1421              		.loc 1 2325 30 is_stmt 0 view .LVU434
 1422 026a 2378     		ldrb	r3, [r4]
2325:Core/Src/lz4.c ****                 op[1] = match[1];
 1423              		.loc 1 2325 23 view .LVU435
 1424 026c 3B70     		strb	r3, [r7]
2326:Core/Src/lz4.c ****                 op[2] = match[2];
 1425              		.loc 1 2326 17 is_stmt 1 view .LVU436
2326:Core/Src/lz4.c ****                 op[2] = match[2];
 1426              		.loc 1 2326 23 is_stmt 0 view .LVU437
 1427 026e 6378     		ldrb	r3, [r4, #1]
 1428 0270 7B70     		strb	r3, [r7, #1]
2327:Core/Src/lz4.c ****                 op[3] = match[3];
 1429              		.loc 1 2327 17 is_stmt 1 view .LVU438
2327:Core/Src/lz4.c ****                 op[3] = match[3];
 1430              		.loc 1 2327 23 is_stmt 0 view .LVU439
 1431 0272 A378     		ldrb	r3, [r4, #2]
 1432 0274 BB70     		strb	r3, [r7, #2]
2328:Core/Src/lz4.c ****                 match += inc32table[offset];
 1433              		.loc 1 2328 17 is_stmt 1 view .LVU440
2328:Core/Src/lz4.c ****                 match += inc32table[offset];
 1434              		.loc 1 2328 23 is_stmt 0 view .LVU441
 1435 0276 E378     		ldrb	r3, [r4, #3]
 1436 0278 FB70     		strb	r3, [r7, #3]
2329:Core/Src/lz4.c ****                 LZ4_memcpy(op+4, match, 4);
 1437              		.loc 1 2329 17 is_stmt 1 view .LVU442
2329:Core/Src/lz4.c ****                 LZ4_memcpy(op+4, match, 4);
 1438              		.loc 1 2329 36 is_stmt 0 view .LVU443
 1439 027a 5346     		mov	r3, r10
 1440 027c 9B00     		lsls	r3, r3, #2
 1441 027e 1A00     		movs	r2, r3
 1442 0280 114B     		ldr	r3, .L82+4
 1443 0282 0392     		str	r2, [sp, #12]
 1444 0284 D158     		ldr	r1, [r2, r3]
2329:Core/Src/lz4.c ****                 LZ4_memcpy(op+4, match, 4);
 1445              		.loc 1 2329 23 view .LVU444
 1446 0286 A246     		mov	r10, r4
 1447              	.LVL149:
ARM GAS  /var/folders/b6/0xn3z77n589c481l0rsth7mc0000gn/T//ccW6wNUD.s 			page 74


2329:Core/Src/lz4.c ****                 LZ4_memcpy(op+4, match, 4);
 1448              		.loc 1 2329 23 view .LVU445
 1449 0288 8A44     		add	r10, r10, r1
 1450              	.LVL150:
2330:Core/Src/lz4.c ****                 match -= dec64table[offset];
 1451              		.loc 1 2330 17 is_stmt 1 view .LVU446
 1452 028a 381D     		adds	r0, r7, #4
 1453 028c 0422     		movs	r2, #4
 1454 028e 5146     		mov	r1, r10
 1455 0290 FFF7FEFF 		bl	memcpy
 1456              	.LVL151:
2331:Core/Src/lz4.c ****             } else {
 1457              		.loc 1 2331 17 view .LVU447
2331:Core/Src/lz4.c ****             } else {
 1458              		.loc 1 2331 36 is_stmt 0 view .LVU448
 1459 0294 0D4B     		ldr	r3, .L82+8
 1460 0296 039A     		ldr	r2, [sp, #12]
 1461 0298 D458     		ldr	r4, [r2, r3]
2331:Core/Src/lz4.c ****             } else {
 1462              		.loc 1 2331 23 view .LVU449
 1463 029a 5346     		mov	r3, r10
 1464 029c 1C1B     		subs	r4, r3, r4
 1465              	.LVL152:
2331:Core/Src/lz4.c ****             } else {
 1466              		.loc 1 2331 23 view .LVU450
 1467 029e CAE7     		b	.L59
 1468              	.LVL153:
 1469              	.L69:
2240:Core/Src/lz4.c ****                 /* Necessarily EOF when !partialDecoding.
 1470              		.loc 1 2240 20 view .LVU451
 1471 02a0 3E00     		movs	r6, r7
 1472 02a2 65E7     		b	.L47
 1473              	.L79:
2240:Core/Src/lz4.c ****                 /* Necessarily EOF when !partialDecoding.
 1474              		.loc 1 2240 20 view .LVU452
 1475 02a4 3E00     		movs	r6, r7
 1476 02a6 63E7     		b	.L47
 1477              	.LVL154:
 1478              	.L67:
 1479              	.LBB3018:
2240:Core/Src/lz4.c ****                 /* Necessarily EOF when !partialDecoding.
 1480              		.loc 1 2240 20 view .LVU453
 1481 02a8 2500     		movs	r5, r4
 1482              	.LVL155:
2240:Core/Src/lz4.c ****                 /* Necessarily EOF when !partialDecoding.
 1483              		.loc 1 2240 20 view .LVU454
 1484 02aa ADE7     		b	.L42
 1485              	.LVL156:
 1486              	.L61:
2240:Core/Src/lz4.c ****                 /* Necessarily EOF when !partialDecoding.
 1487              		.loc 1 2240 20 view .LVU455
 1488              	.LBE3018:
 1489              	.LBE3019:
1957:Core/Src/lz4.c **** 
 1490              		.loc 1 1957 53 view .LVU456
 1491 02ac 0120     		movs	r0, #1
 1492 02ae 4042     		rsbs	r0, r0, #0
ARM GAS  /var/folders/b6/0xn3z77n589c481l0rsth7mc0000gn/T//ccW6wNUD.s 			page 75


 1493 02b0 60E7     		b	.L30
 1494              	.L62:
 1495 02b2 0120     		movs	r0, #1
 1496 02b4 4042     		rsbs	r0, r0, #0
 1497 02b6 5DE7     		b	.L30
 1498              	.LVL157:
 1499              	.L63:
 1500              	.LBB3020:
1987:Core/Src/lz4.c ****             return ((srcSize==1) && (*ip==0)) ? 0 : -1;
 1501              		.loc 1 1987 41 view .LVU457
 1502 02b8 0020     		movs	r0, #0
 1503 02ba 5BE7     		b	.L30
 1504              	.L64:
1990:Core/Src/lz4.c **** 
 1505              		.loc 1 1990 44 view .LVU458
 1506 02bc 0120     		movs	r0, #1
 1507 02be 4042     		rsbs	r0, r0, #0
 1508              	.LVL158:
1990:Core/Src/lz4.c **** 
 1509              		.loc 1 1990 44 view .LVU459
 1510              	.LBE3020:
 1511              	.LBE3021:
 1512              	.LBE3022:
2407:Core/Src/lz4.c ****                                   partial_decode, withPrefix64k,
 1513              		.loc 1 2407 12 view .LVU460
 1514 02c0 58E7     		b	.L30
 1515              	.L83:
 1516 02c2 C046     		.align	2
 1517              	.L82:
 1518 02c4 0000FFFF 		.word	-65536
 1519 02c8 00000000 		.word	.LANCHOR0
 1520 02cc 00000000 		.word	.LANCHOR1
 1521              		.cfi_endproc
 1522              	.LFE55:
 1524              		.section	.text.LZ4_decompress_safe_withSmallPrefix,"ax",%progbits
 1525              		.align	1
 1526              		.syntax unified
 1527              		.code	16
 1528              		.thumb_func
 1529              		.fpu softvfp
 1531              	LZ4_decompress_safe_withSmallPrefix:
 1532              	.LVL159:
 1533              	.LFB57:
2411:Core/Src/lz4.c **** 
2412:Core/Src/lz4.c **** /* Another obsolete API function, paired with the previous one. */
2413:Core/Src/lz4.c **** int LZ4_decompress_fast_withPrefix64k(const char* source, char* dest, int originalSize)
2414:Core/Src/lz4.c **** {
2415:Core/Src/lz4.c ****     return LZ4_decompress_unsafe_generic(
2416:Core/Src/lz4.c ****                 (const BYTE*)source, (BYTE*)dest, originalSize,
2417:Core/Src/lz4.c ****                 64 KB, NULL, 0);
2418:Core/Src/lz4.c **** }
2419:Core/Src/lz4.c **** 
2420:Core/Src/lz4.c **** LZ4_FORCE_O2
2421:Core/Src/lz4.c **** static int LZ4_decompress_safe_withSmallPrefix(const char* source, char* dest, int compressedSize, 
2422:Core/Src/lz4.c ****                                                size_t prefixSize)
2423:Core/Src/lz4.c **** {
 1534              		.loc 1 2423 1 is_stmt 1 view -0
ARM GAS  /var/folders/b6/0xn3z77n589c481l0rsth7mc0000gn/T//ccW6wNUD.s 			page 76


 1535              		.cfi_startproc
 1536              		@ args = 4, pretend = 0, frame = 32
 1537              		@ frame_needed = 0, uses_anonymous_args = 0
 1538              		.loc 1 2423 1 is_stmt 0 view .LVU462
 1539 0000 F0B5     		push	{r4, r5, r6, r7, lr}
 1540              		.cfi_def_cfa_offset 20
 1541              		.cfi_offset 4, -20
 1542              		.cfi_offset 5, -16
 1543              		.cfi_offset 6, -12
 1544              		.cfi_offset 7, -8
 1545              		.cfi_offset 14, -4
 1546 0002 DE46     		mov	lr, fp
 1547 0004 5746     		mov	r7, r10
 1548 0006 4E46     		mov	r6, r9
 1549 0008 4546     		mov	r5, r8
 1550 000a E0B5     		push	{r5, r6, r7, lr}
 1551              		.cfi_def_cfa_offset 36
 1552              		.cfi_offset 8, -36
 1553              		.cfi_offset 9, -32
 1554              		.cfi_offset 10, -28
 1555              		.cfi_offset 11, -24
 1556 000c 89B0     		sub	sp, sp, #36
 1557              		.cfi_def_cfa_offset 72
 1558 000e 0590     		str	r0, [sp, #20]
 1559 0010 0291     		str	r1, [sp, #8]
2424:Core/Src/lz4.c ****     return LZ4_decompress_generic(source, dest, compressedSize, maxOutputSize,
 1560              		.loc 1 2424 5 is_stmt 1 view .LVU463
 1561              		.loc 1 2424 12 is_stmt 0 view .LVU464
 1562 0012 129C     		ldr	r4, [sp, #72]
 1563 0014 0C1B     		subs	r4, r1, r4
 1564 0016 0194     		str	r4, [sp, #4]
 1565              	.LVL160:
 1566              	.LBB3023:
 1567              	.LBI3023:
1944:Core/Src/lz4.c ****                  const char* const src,
 1568              		.loc 1 1944 1 is_stmt 1 view .LVU465
 1569              	.LBB3024:
1957:Core/Src/lz4.c **** 
 1570              		.loc 1 1957 5 view .LVU466
1957:Core/Src/lz4.c **** 
 1571              		.loc 1 1957 8 is_stmt 0 view .LVU467
 1572 0018 0028     		cmp	r0, #0
 1573 001a 00D1     		bne	.LCB1658
 1574 001c 55E1     		b	.L110	@long jump
 1575              	.LCB1658:
1957:Core/Src/lz4.c **** 
 1576              		.loc 1 1957 23 view .LVU468
 1577 001e 002B     		cmp	r3, #0
 1578 0020 00DA     		bge	.LCB1660
 1579 0022 55E1     		b	.L111	@long jump
 1580              	.LCB1660:
 1581              	.LBB3025:
1959:Core/Src/lz4.c ****         const BYTE* const iend = ip + srcSize;
 1582              		.loc 1 1959 9 is_stmt 1 view .LVU469
 1583              	.LVL161:
1960:Core/Src/lz4.c **** 
 1584              		.loc 1 1960 9 view .LVU470
ARM GAS  /var/folders/b6/0xn3z77n589c481l0rsth7mc0000gn/T//ccW6wNUD.s 			page 77


1960:Core/Src/lz4.c **** 
 1585              		.loc 1 1960 27 is_stmt 0 view .LVU471
 1586 0024 8246     		mov	r10, r0
 1587 0026 9244     		add	r10, r10, r2
 1588              	.LVL162:
1962:Core/Src/lz4.c ****         BYTE* const oend = op + outputSize;
 1589              		.loc 1 1962 9 is_stmt 1 view .LVU472
1963:Core/Src/lz4.c ****         BYTE* cpy;
 1590              		.loc 1 1963 9 view .LVU473
1963:Core/Src/lz4.c ****         BYTE* cpy;
 1591              		.loc 1 1963 21 is_stmt 0 view .LVU474
 1592 0028 8846     		mov	r8, r1
 1593 002a 9844     		add	r8, r8, r3
 1594              	.LVL163:
1964:Core/Src/lz4.c **** 
 1595              		.loc 1 1964 9 is_stmt 1 view .LVU475
1966:Core/Src/lz4.c **** 
 1596              		.loc 1 1966 9 view .LVU476
1968:Core/Src/lz4.c **** 
 1597              		.loc 1 1968 9 view .LVU477
1972:Core/Src/lz4.c ****         const BYTE* const shortoend = oend - 14 /*maxLL*/ - 18 /*maxML*/;
 1598              		.loc 1 1972 9 view .LVU478
1972:Core/Src/lz4.c ****         const BYTE* const shortoend = oend - 14 /*maxLL*/ - 18 /*maxML*/;
 1599              		.loc 1 1972 27 is_stmt 0 view .LVU479
 1600 002c 1021     		movs	r1, #16
 1601              	.LVL164:
1972:Core/Src/lz4.c ****         const BYTE* const shortoend = oend - 14 /*maxLL*/ - 18 /*maxML*/;
 1602              		.loc 1 1972 27 view .LVU480
 1603 002e 4942     		rsbs	r1, r1, #0
 1604 0030 5144     		add	r1, r1, r10
 1605 0032 0391     		str	r1, [sp, #12]
 1606              	.LVL165:
1973:Core/Src/lz4.c **** 
 1607              		.loc 1 1973 9 is_stmt 1 view .LVU481
1973:Core/Src/lz4.c **** 
 1608              		.loc 1 1973 27 is_stmt 0 view .LVU482
 1609 0034 2021     		movs	r1, #32
 1610              	.LVL166:
1973:Core/Src/lz4.c **** 
 1611              		.loc 1 1973 27 view .LVU483
 1612 0036 4942     		rsbs	r1, r1, #0
